; dlltool.exe -z libdapserver.def --export-all-symbols DODSFilter.obj OPeNDAPDir.obj OPeNDAPFile.obj cgi_util.obj
EXPORTS
	?ErrMsgT@@YAXABV?$basic_string@DU?$char_traits@D@std@@V?$allocator@D@2@@std@@@Z
	?_Buynode@?$list@VOPeNDAPDir@@V?$allocator@VOPeNDAPDir@@@std@@@std@@IAEPAU_Node@?$_List_nod@VOPeNDAPDir@@V?$allocator@VOPeNDAPDir@@@std@@@2@PAU342@0ABVOPeNDAPDir@@@Z
	?_Buynode@?$list@VOPeNDAPDir@@V?$allocator@VOPeNDAPDir@@@std@@@std@@IAEPAU_Node@?$_List_nod@VOPeNDAPDir@@V?$allocator@VOPeNDAPDir@@@std@@@2@XZ
	?_Buynode@?$list@VOPeNDAPFile@@V?$allocator@VOPeNDAPFile@@@std@@@std@@IAEPAU_Node@?$_List_nod@VOPeNDAPFile@@V?$allocator@VOPeNDAPFile@@@std@@@2@PAU342@0ABVOPeNDAPFile@@@Z
	?_Buynode@?$list@VOPeNDAPFile@@V?$allocator@VOPeNDAPFile@@@std@@@std@@IAEPAU_Node@?$_List_nod@VOPeNDAPFile@@V?$allocator@VOPeNDAPFile@@@std@@@2@XZ
	?_Hardfail@?$_Iosb@H@std@@2W4_Iostate@12@B
	?_Incsize@?$list@VOPeNDAPDir@@V?$allocator@VOPeNDAPDir@@@std@@@std@@IAEXI@Z
	?_Incsize@?$list@VOPeNDAPFile@@V?$allocator@VOPeNDAPFile@@@std@@@std@@IAEXI@Z
	?_Insert@?$list@VOPeNDAPDir@@V?$allocator@VOPeNDAPDir@@@std@@@std@@QAEXV?$_Iterator@$00@12@ABVOPeNDAPDir@@@Z
	?_Insert@?$list@VOPeNDAPFile@@V?$allocator@VOPeNDAPFile@@@std@@@std@@QAEXV?$_Iterator@$00@12@ABVOPeNDAPFile@@@Z
	?_Mynode@?$_Const_iterator@$00@?$list@VOPeNDAPDir@@V?$allocator@VOPeNDAPDir@@@std@@@std@@QBEPAU_Node@?$_List_nod@VOPeNDAPDir@@V?$allocator@VOPeNDAPDir@@@std@@@3@XZ
	?_Mynode@?$_Const_iterator@$00@?$list@VOPeNDAPFile@@V?$allocator@VOPeNDAPFile@@@std@@@std@@QBEPAU_Node@?$_List_nod@VOPeNDAPFile@@V?$allocator@VOPeNDAPFile@@@std@@@3@XZ
	?_Myval@?$list@VOPeNDAPDir@@V?$allocator@VOPeNDAPDir@@@std@@@std@@KAAAVOPeNDAPDir@@PAU_Node@?$_List_nod@VOPeNDAPDir@@V?$allocator@VOPeNDAPDir@@@std@@@2@@Z
	?_Myval@?$list@VOPeNDAPFile@@V?$allocator@VOPeNDAPFile@@@std@@@std@@KAAAVOPeNDAPFile@@PAU_Node@?$_List_nod@VOPeNDAPFile@@V?$allocator@VOPeNDAPFile@@@std@@@2@@Z
	?_Nextnode@?$list@VOPeNDAPDir@@V?$allocator@VOPeNDAPDir@@@std@@@std@@KAAAPAU_Node@?$_List_nod@VOPeNDAPDir@@V?$allocator@VOPeNDAPDir@@@std@@@2@PAU342@@Z
	?_Nextnode@?$list@VOPeNDAPFile@@V?$allocator@VOPeNDAPFile@@@std@@@std@@KAAAPAU_Node@?$_List_nod@VOPeNDAPFile@@V?$allocator@VOPeNDAPFile@@@std@@@2@PAU342@@Z
	?_Nocreate@?$_Iosb@H@std@@2W4_Openmode@12@B
	?_Noreplace@?$_Iosb@H@std@@2W4_Openmode@12@B
	?_Prevnode@?$list@VOPeNDAPDir@@V?$allocator@VOPeNDAPDir@@@std@@@std@@KAAAPAU_Node@?$_List_nod@VOPeNDAPDir@@V?$allocator@VOPeNDAPDir@@@std@@@2@PAU342@@Z
	?_Prevnode@?$list@VOPeNDAPFile@@V?$allocator@VOPeNDAPFile@@@std@@@std@@KAAAPAU_Node@?$_List_nod@VOPeNDAPFile@@V?$allocator@VOPeNDAPFile@@@std@@@2@PAU342@@Z
	?_Stdio@?$_Iosb@H@std@@2W4_Fmtflags@12@B
	?_Tidy@?$list@VOPeNDAPDir@@V?$allocator@VOPeNDAPDir@@@std@@@std@@IAEXXZ
	?_Tidy@?$list@VOPeNDAPFile@@V?$allocator@VOPeNDAPFile@@@std@@@std@@IAEXXZ
	?adjustfield@?$_Iosb@H@std@@2W4_Fmtflags@12@B
	?all@?$_Locbase@H@std@@2HB
	?allocate@?$allocator@U_Node@?$_List_nod@VOPeNDAPDir@@V?$allocator@VOPeNDAPDir@@@std@@@std@@@std@@QAEPAU_Node@?$_List_nod@VOPeNDAPDir@@V?$allocator@VOPeNDAPDir@@@std@@@2@I@Z
	?allocate@?$allocator@U_Node@?$_List_nod@VOPeNDAPFile@@V?$allocator@VOPeNDAPFile@@@std@@@std@@@std@@QAEPAU_Node@?$_List_nod@VOPeNDAPFile@@V?$allocator@VOPeNDAPFile@@@std@@@2@I@Z
	?app@?$_Iosb@H@std@@2W4_Openmode@12@B
	?ate@?$_Iosb@H@std@@2W4_Openmode@12@B
	?badbit@?$_Iosb@H@std@@2W4_Iostate@12@B
	?base@?$reverse_iterator@V?$_String_iterator@DU?$char_traits@D@std@@V?$allocator@D@2@@std@@@std@@QBE?AV?$_String_iterator@DU?$char_traits@D@std@@V?$allocator@D@2@@2@XZ
	?basefield@?$_Iosb@H@std@@2W4_Fmtflags@12@B
	?beg@?$_Iosb@H@std@@2W4_Seekdir@12@B
	?begin@?$list@VOPeNDAPDir@@V?$allocator@VOPeNDAPDir@@@std@@@std@@QAE?AV?$_Iterator@$00@12@XZ
	?begin@?$list@VOPeNDAPFile@@V?$allocator@VOPeNDAPFile@@@std@@@std@@QAE?AV?$_Iterator@$00@12@XZ
	?beginOfDirList@OPeNDAPDir@@UAE?AV?$_Iterator@$00@?$list@VOPeNDAPDir@@V?$allocator@VOPeNDAPDir@@@std@@@std@@XZ
	?beginOfFileList@OPeNDAPDir@@UAE?AV?$_Iterator@$00@?$list@VOPeNDAPFile@@V?$allocator@VOPeNDAPFile@@@std@@@std@@XZ
	?binary@?$_Iosb@H@std@@2W4_Openmode@12@B
	?boolalpha@?$_Iosb@H@std@@2W4_Fmtflags@12@B
	?breakApart@OPeNDAPFile@@AAEXABV?$basic_string@DU?$char_traits@D@std@@V?$allocator@D@2@@std@@@Z
	?breakExtension@OPeNDAPFile@@AAEXXZ
	?clear@?$list@VOPeNDAPDir@@V?$allocator@VOPeNDAPDir@@@std@@@std@@QAEXXZ
	?clear@?$list@VOPeNDAPFile@@V?$allocator@VOPeNDAPFile@@@std@@@std@@QAEXXZ
	?collate@?$_Locbase@H@std@@2HB
	?construct@?$allocator@PAU_Node@?$_List_nod@VOPeNDAPDir@@V?$allocator@VOPeNDAPDir@@@std@@@std@@@std@@QAEXPAPAU_Node@?$_List_nod@VOPeNDAPDir@@V?$allocator@VOPeNDAPDir@@@std@@@2@ABQAU342@@Z
	?construct@?$allocator@PAU_Node@?$_List_nod@VOPeNDAPFile@@V?$allocator@VOPeNDAPFile@@@std@@@std@@@std@@QAEXPAPAU_Node@?$_List_nod@VOPeNDAPFile@@V?$allocator@VOPeNDAPFile@@@std@@@2@ABQAU342@@Z
	?construct@?$allocator@VOPeNDAPDir@@@std@@QAEXPAVOPeNDAPDir@@ABV3@@Z
	?construct@?$allocator@VOPeNDAPFile@@@std@@QAEXPAVOPeNDAPFile@@ABV3@@Z
	?ctype@?$_Locbase@H@std@@2HB
	?cur@?$_Iosb@H@std@@2W4_Seekdir@12@B
	?deallocate@?$allocator@U_Node@?$_List_nod@VOPeNDAPDir@@V?$allocator@VOPeNDAPDir@@@std@@@std@@@std@@QAEXPAU_Node@?$_List_nod@VOPeNDAPDir@@V?$allocator@VOPeNDAPDir@@@std@@@2@I@Z
	?deallocate@?$allocator@U_Node@?$_List_nod@VOPeNDAPFile@@V?$allocator@VOPeNDAPFile@@@std@@@std@@@std@@QAEXPAU_Node@?$_List_nod@VOPeNDAPFile@@V?$allocator@VOPeNDAPFile@@@std@@@2@I@Z
	?dec@?$_Iosb@H@std@@2W4_Fmtflags@12@B
	?destroy@?$allocator@PAU_Node@?$_List_nod@VOPeNDAPDir@@V?$allocator@VOPeNDAPDir@@@std@@@std@@@std@@QAEXPAPAU_Node@?$_List_nod@VOPeNDAPDir@@V?$allocator@VOPeNDAPDir@@@std@@@2@@Z
	?destroy@?$allocator@PAU_Node@?$_List_nod@VOPeNDAPFile@@V?$allocator@VOPeNDAPFile@@@std@@@std@@@std@@QAEXPAPAU_Node@?$_List_nod@VOPeNDAPFile@@V?$allocator@VOPeNDAPFile@@@std@@@2@@Z
	?destroy@?$allocator@U_Node@?$_List_nod@VOPeNDAPDir@@V?$allocator@VOPeNDAPDir@@@std@@@std@@@std@@QAEXPAU_Node@?$_List_nod@VOPeNDAPDir@@V?$allocator@VOPeNDAPDir@@@std@@@2@@Z
	?destroy@?$allocator@U_Node@?$_List_nod@VOPeNDAPFile@@V?$allocator@VOPeNDAPFile@@@std@@@std@@@std@@QAEXPAU_Node@?$_List_nod@VOPeNDAPFile@@V?$allocator@VOPeNDAPFile@@@std@@@2@@Z
	?do_version@@YA_NABV?$basic_string@DU?$char_traits@D@std@@V?$allocator@D@2@@std@@0@Z
	?end@?$_Iosb@H@std@@2W4_Seekdir@12@B
	?end@?$list@VOPeNDAPDir@@V?$allocator@VOPeNDAPDir@@@std@@@std@@QAE?AV?$_Iterator@$00@12@XZ
	?end@?$list@VOPeNDAPFile@@V?$allocator@VOPeNDAPFile@@@std@@@std@@QAE?AV?$_Iterator@$00@12@XZ
	?endOfDirList@OPeNDAPDir@@UAE?AV?$_Iterator@$00@?$list@VOPeNDAPDir@@V?$allocator@VOPeNDAPDir@@@std@@@std@@XZ
	?endOfFileList@OPeNDAPDir@@UAE?AV?$_Iterator@$00@?$list@VOPeNDAPFile@@V?$allocator@VOPeNDAPFile@@@std@@@std@@XZ
	?eofbit@?$_Iosb@H@std@@2W4_Iostate@12@B
	?failbit@?$_Iosb@H@std@@2W4_Iostate@12@B
	?fixed@?$_Iosb@H@std@@2W4_Fmtflags@12@B
	?floatfield@?$_Iosb@H@std@@2W4_Fmtflags@12@B
	?found_override@@YA_NV?$basic_string@DU?$char_traits@D@std@@V?$allocator@D@2@@std@@AAV12@@Z
	?getBaseName@OPeNDAPFile@@UAE?AV?$basic_string@DU?$char_traits@D@std@@V?$allocator@D@2@@std@@XZ
	?getDirName@OPeNDAPDir@@UAE?AV?$basic_string@DU?$char_traits@D@std@@V?$allocator@D@2@@std@@XZ
	?getDirName@OPeNDAPFile@@UAE?AV?$basic_string@DU?$char_traits@D@std@@V?$allocator@D@2@@std@@XZ
	?getExtension@OPeNDAPFile@@UAE?AV?$basic_string@DU?$char_traits@D@std@@V?$allocator@D@2@@std@@XZ
	?getFileName@OPeNDAPFile@@UAE?AV?$basic_string@DU?$char_traits@D@std@@V?$allocator@D@2@@std@@XZ
	?getFullPath@OPeNDAPFile@@UAE?AV?$basic_string@DU?$char_traits@D@std@@V?$allocator@D@2@@std@@XZ
	?get_timeout@DODSFilter@@QBEHXZ
	?get_user_supplied_docs@@YA?AV?$basic_string@DU?$char_traits@D@std@@V?$allocator@D@2@@std@@V12@0@Z
	?goodbit@?$_Iosb@H@std@@2W4_Iostate@12@B
	?hex@?$_Iosb@H@std@@2W4_Fmtflags@12@B
	?in@?$_Iosb@H@std@@2W4_Openmode@12@B
	?initialize@DODSFilter@@IAEXHQAPAD@Z
	?initialize@DODSFilter@@IAEXXZ
	?internal@?$_Iosb@H@std@@2W4_Fmtflags@12@B
	?left@?$_Iosb@H@std@@2W4_Fmtflags@12@B
	?loadDir@OPeNDAPDir@@AAEXXZ
	?max_size@?$allocator@VOPeNDAPDir@@@std@@QBEIXZ
	?max_size@?$allocator@VOPeNDAPFile@@@std@@QBEIXZ
	?max_size@?$list@VOPeNDAPDir@@V?$allocator@VOPeNDAPDir@@@std@@@std@@QBEIXZ
	?max_size@?$list@VOPeNDAPFile@@V?$allocator@VOPeNDAPFile@@@std@@@std@@QBEIXZ
	?messages@?$_Locbase@H@std@@2HB
	?monetary@?$_Locbase@H@std@@2HB
	?name_path@@YA?AV?$basic_string@DU?$char_traits@D@std@@V?$allocator@D@2@@std@@ABV12@@Z
	?none@?$_Locbase@H@std@@2HB
	?numeric@?$_Locbase@H@std@@2HB
	?oct@?$_Iosb@H@std@@2W4_Fmtflags@12@B
	?out@?$_Iosb@H@std@@2W4_Openmode@12@B
	?process_options@DODSFilter@@MAEHHQAPAD@Z
	?push_back@?$list@VOPeNDAPDir@@V?$allocator@VOPeNDAPDir@@@std@@@std@@QAEXABVOPeNDAPDir@@@Z
	?push_back@?$list@VOPeNDAPFile@@V?$allocator@VOPeNDAPFile@@@std@@@std@@QAEXABVOPeNDAPFile@@@Z
	?remove_mime_header@@YA_NPAU_iobuf@@@Z
	?rfc822_date@@YA?AV?$basic_string@DU?$char_traits@D@std@@V?$allocator@D@2@@std@@_J@Z
	?right@?$_Iosb@H@std@@2W4_Fmtflags@12@B
	?scientific@?$_Iosb@H@std@@2W4_Fmtflags@12@B
	?send_blob@DODSFilter@@UAEXAAVDDS@@PAU_iobuf@@_N@Z
	?set_URL@DODSFilter@@UAEXABV?$basic_string@DU?$char_traits@D@std@@V?$allocator@D@2@@std@@@Z
	?set_ce@DODSFilter@@UAEXV?$basic_string@DU?$char_traits@D@std@@V?$allocator@D@2@@std@@@Z
	?set_cgi_version@DODSFilter@@UAEXV?$basic_string@DU?$char_traits@D@std@@V?$allocator@D@2@@std@@@Z
	?set_dataset_name@DODSFilter@@UAEXV?$basic_string@DU?$char_traits@D@std@@V?$allocator@D@2@@std@@@Z
	?set_mime_binary@@YAXPAU_iobuf@@W4ObjectType@@ABV?$basic_string@DU?$char_traits@D@std@@V?$allocator@D@2@@std@@W4EncodingType@@_J@Z
	?set_mime_error@@YAXPAU_iobuf@@HABV?$basic_string@DU?$char_traits@D@std@@V?$allocator@D@2@@std@@1@Z
	?set_mime_html@@YAXPAU_iobuf@@W4ObjectType@@ABV?$basic_string@DU?$char_traits@D@std@@V?$allocator@D@2@@std@@W4EncodingType@@_J@Z
	?set_mime_not_modified@@YAXPAU_iobuf@@@Z
	?set_mime_text@@YAXPAU_iobuf@@W4ObjectType@@ABV?$basic_string@DU?$char_traits@D@std@@V?$allocator@D@2@@std@@W4EncodingType@@_J@Z
	?set_response@DODSFilter@@UAEXABV?$basic_string@DU?$char_traits@D@std@@V?$allocator@D@2@@std@@@Z
	?set_timeout@DODSFilter@@QAEXH@Z
	?showbase@?$_Iosb@H@std@@2W4_Fmtflags@12@B
	?showpoint@?$_Iosb@H@std@@2W4_Fmtflags@12@B
	?showpos@?$_Iosb@H@std@@2W4_Fmtflags@12@B
	?skipws@?$_Iosb@H@std@@2W4_Fmtflags@12@B
	?time@?$_Locbase@H@std@@2HB
	?trunc@?$_Iosb@H@std@@2W4_Openmode@12@B
	?unitbuf@?$_Iosb@H@std@@2W4_Fmtflags@12@B
	?uppercase@?$_Iosb@H@std@@2W4_Fmtflags@12@B
	?what@logic_error@std@@UBEPBDXZ

