; dlltool.exe -z libdapclient.def --export-all-symbols AISConnect.obj AISDatabaseParser.obj AISMerge.obj AISResources.obj Connect.obj HTTPCache.obj HTTPConnect.obj RCReader.obj ResponseTooBigErr.obj util_mit.obj
EXPORTS
	?CE@Connect@@UAE?AV?$basic_string@DU?$char_traits@D@std@@V?$allocator@D@2@@std@@XZ
	?URL@Connect@@UAE?AV?$basic_string@DU?$char_traits@D@std@@V?$allocator@D@2@@std@@_N@Z
	?_Buy@?$vector@PAUCacheEntry@HTTPCache@@V?$allocator@PAUCacheEntry@HTTPCache@@@std@@@std@@IAE_NI@Z
	?_Buy@?$vector@U?$pair@V?$basic_string@DU?$char_traits@D@std@@V?$allocator@D@2@@std@@V?$vector@VResource@@V?$allocator@VResource@@@std@@@2@@std@@V?$allocator@U?$pair@V?$basic_string@DU?$char_traits@D@std@@V?$allocator@D@2@@std@@V?$vector@VResource@@V?$allocator@VResource@@@std@@@2@@std@@@2@@std@@IAE_NI@Z
	?_Buy@?$vector@V?$basic_string@DU?$char_traits@D@std@@V?$allocator@D@2@@std@@V?$allocator@V?$basic_string@DU?$char_traits@D@std@@V?$allocator@D@2@@std@@@2@@std@@IAE_NI@Z
	?_Buy@?$vector@VResource@@V?$allocator@VResource@@@std@@@std@@IAE_NI@Z
	?_Buynode@?$_Tree@V?$_Tmap_traits@PAU_iobuf@@PAUCacheEntry@HTTPCache@@U?$less@PAU_iobuf@@@std@@V?$allocator@U?$pair@QAU_iobuf@@PAUCacheEntry@HTTPCache@@@std@@@5@$0A@@std@@@std@@IAEPAU_Node@?$_Tree_nod@V?$_Tmap_traits@PAU_iobuf@@PAUCacheEntry@HTTPCache@@U?$less@PAU_iobuf@@@std@@V?$allocator@U?$pair@QAU_iobuf@@PAUCacheEntry@HTTPCache@@@std@@@5@$0A@@std@@@2@PAU342@00ABU?$pair@QAU_iobuf@@PAUCacheEntry@HTTPCache@@@2@D@Z
	?_Buynode@?$_Tree@V?$_Tmap_traits@PAU_iobuf@@PAUCacheEntry@HTTPCache@@U?$less@PAU_iobuf@@@std@@V?$allocator@U?$pair@QAU_iobuf@@PAUCacheEntry@HTTPCache@@@std@@@5@$0A@@std@@@std@@IAEPAU_Node@?$_Tree_nod@V?$_Tmap_traits@PAU_iobuf@@PAUCacheEntry@HTTPCache@@U?$less@PAU_iobuf@@@std@@V?$allocator@U?$pair@QAU_iobuf@@PAUCacheEntry@HTTPCache@@@std@@@5@$0A@@std@@@2@XZ
	?_Buynode@?$_Tree@V?$_Tmap_traits@V?$basic_string@DU?$char_traits@D@std@@V?$allocator@D@2@@std@@V12@U?$less@V?$basic_string@DU?$char_traits@D@std@@V?$allocator@D@2@@std@@@2@V?$allocator@U?$pair@$$CBV?$basic_string@DU?$char_traits@D@std@@V?$allocator@D@2@@std@@V12@@std@@@2@$0A@@std@@@std@@IAEPAU_Node@?$_Tree_nod@V?$_Tmap_traits@V?$basic_string@DU?$char_traits@D@std@@V?$allocator@D@2@@std@@V12@U?$less@V?$basic_string@DU?$char_traits@D@std@@V?$allocator@D@2@@std@@@2@V?$allocator@U?$pair@$$CBV?$basic_string@DU?$char_traits@D@std@@V?$allocator@D@2@@std@@V12@@std@@@2@$0A@@std@@@2@XZ
	?_Buynode@?$_Tree@V?$_Tmap_traits@V?$basic_string@DU?$char_traits@D@std@@V?$allocator@D@2@@std@@V?$vector@VResource@@V?$allocator@VResource@@@std@@@2@U?$less@V?$basic_string@DU?$char_traits@D@std@@V?$allocator@D@2@@std@@@2@V?$allocator@U?$pair@$$CBV?$basic_string@DU?$char_traits@D@std@@V?$allocator@D@2@@std@@V?$vector@VResource@@V?$allocator@VResource@@@std@@@2@@std@@@2@$0A@@std@@@std@@IAEPAU_Node@?$_Tree_nod@V?$_Tmap_traits@V?$basic_string@DU?$char_traits@D@std@@V?$allocator@D@2@@std@@V?$vector@VResource@@V?$allocator@VResource@@@std@@@2@U?$less@V?$basic_string@DU?$char_traits@D@std@@V?$allocator@D@2@@std@@@2@V?$allocator@U?$pair@$$CBV?$basic_string@DU?$char_traits@D@std@@V?$allocator@D@2@@std@@V?$vector@VResource@@V?$allocator@VResource@@@std@@@2@@std@@@2@$0A@@std@@@2@PAU342@00ABU?$pair@$$CBV?$basic_string@DU?$char_traits@D@std@@V?$allocator@D@2@@std@@V?$vector@VResource@@V?$allocator@VResource@@@std@@@2@@2@D@Z
	?_Buynode@?$_Tree@V?$_Tmap_traits@V?$basic_string@DU?$char_traits@D@std@@V?$allocator@D@2@@std@@V?$vector@VResource@@V?$allocator@VResource@@@std@@@2@U?$less@V?$basic_string@DU?$char_traits@D@std@@V?$allocator@D@2@@std@@@2@V?$allocator@U?$pair@$$CBV?$basic_string@DU?$char_traits@D@std@@V?$allocator@D@2@@std@@V?$vector@VResource@@V?$allocator@VResource@@@std@@@2@@std@@@2@$0A@@std@@@std@@IAEPAU_Node@?$_Tree_nod@V?$_Tmap_traits@V?$basic_string@DU?$char_traits@D@std@@V?$allocator@D@2@@std@@V?$vector@VResource@@V?$allocator@VResource@@@std@@@2@U?$less@V?$basic_string@DU?$char_traits@D@std@@V?$allocator@D@2@@std@@@2@V?$allocator@U?$pair@$$CBV?$basic_string@DU?$char_traits@D@std@@V?$allocator@D@2@@std@@V?$vector@VResource@@V?$allocator@VResource@@@std@@@2@@std@@@2@$0A@@std@@@2@XZ
	?_Buynode@?$_Tree@V?$_Tset_traits@V?$basic_string@DU?$char_traits@D@std@@V?$allocator@D@2@@std@@UHeaderLess@@V?$allocator@V?$basic_string@DU?$char_traits@D@std@@V?$allocator@D@2@@std@@@2@$0A@@std@@@std@@IAEPAU_Node@?$_Tree_nod@V?$_Tset_traits@V?$basic_string@DU?$char_traits@D@std@@V?$allocator@D@2@@std@@UHeaderLess@@V?$allocator@V?$basic_string@DU?$char_traits@D@std@@V?$allocator@D@2@@std@@@2@$0A@@std@@@2@PAU342@00ABV?$basic_string@DU?$char_traits@D@std@@V?$allocator@D@2@@2@D@Z
	?_Buynode@?$_Tree@V?$_Tset_traits@V?$basic_string@DU?$char_traits@D@std@@V?$allocator@D@2@@std@@UHeaderLess@@V?$allocator@V?$basic_string@DU?$char_traits@D@std@@V?$allocator@D@2@@std@@@2@$0A@@std@@@std@@IAEPAU_Node@?$_Tree_nod@V?$_Tset_traits@V?$basic_string@DU?$char_traits@D@std@@V?$allocator@D@2@@std@@UHeaderLess@@V?$allocator@V?$basic_string@DU?$char_traits@D@std@@V?$allocator@D@2@@std@@@2@$0A@@std@@@2@XZ
	?_Checked_iterator_assign_from_base@?$_Vector_const_iterator@U?$pair@V?$basic_string@DU?$char_traits@D@std@@V?$allocator@D@2@@std@@V?$vector@VResource@@V?$allocator@VResource@@@std@@@2@@std@@V?$allocator@U?$pair@V?$basic_string@DU?$char_traits@D@std@@V?$allocator@D@2@@std@@V?$vector@VResource@@V?$allocator@VResource@@@std@@@2@@std@@@2@@std@@QAEXPBU?$pair@V?$basic_string@DU?$char_traits@D@std@@V?$allocator@D@2@@std@@V?$vector@VResource@@V?$allocator@VResource@@@std@@@2@@2@@Z
	?_Checked_iterator_assign_from_base@?$_Vector_iterator@PAUCacheEntry@HTTPCache@@V?$allocator@PAUCacheEntry@HTTPCache@@@std@@@std@@QAEXPAPAUCacheEntry@HTTPCache@@@Z
	?_Checked_iterator_assign_from_base@?$_Vector_iterator@U?$pair@V?$basic_string@DU?$char_traits@D@std@@V?$allocator@D@2@@std@@V?$vector@VResource@@V?$allocator@VResource@@@std@@@2@@std@@V?$allocator@U?$pair@V?$basic_string@DU?$char_traits@D@std@@V?$allocator@D@2@@std@@V?$vector@VResource@@V?$allocator@VResource@@@std@@@2@@std@@@2@@std@@QAEXPAU?$pair@V?$basic_string@DU?$char_traits@D@std@@V?$allocator@D@2@@std@@V?$vector@VResource@@V?$allocator@VResource@@@std@@@2@@2@@Z
	?_Checked_iterator_assign_from_base@?$_Vector_iterator@V?$basic_string@DU?$char_traits@D@std@@V?$allocator@D@2@@std@@V?$allocator@V?$basic_string@DU?$char_traits@D@std@@V?$allocator@D@2@@std@@@2@@std@@QAEXPAV?$basic_string@DU?$char_traits@D@std@@V?$allocator@D@2@@2@@Z
	?_Checked_iterator_base@?$_Vector_const_iterator@U?$pair@V?$basic_string@DU?$char_traits@D@std@@V?$allocator@D@2@@std@@V?$vector@VResource@@V?$allocator@VResource@@@std@@@2@@std@@V?$allocator@U?$pair@V?$basic_string@DU?$char_traits@D@std@@V?$allocator@D@2@@std@@V?$vector@VResource@@V?$allocator@VResource@@@std@@@2@@std@@@2@@std@@QBEPBU?$pair@V?$basic_string@DU?$char_traits@D@std@@V?$allocator@D@2@@std@@V?$vector@VResource@@V?$allocator@VResource@@@std@@@2@@2@XZ
	?_Checked_iterator_base@?$_Vector_const_iterator@V?$basic_string@DU?$char_traits@D@std@@V?$allocator@D@2@@std@@V?$allocator@V?$basic_string@DU?$char_traits@D@std@@V?$allocator@D@2@@std@@@2@@std@@QBEPBV?$basic_string@DU?$char_traits@D@std@@V?$allocator@D@2@@2@XZ
	?_Checked_iterator_base@?$_Vector_const_iterator@VResource@@V?$allocator@VResource@@@std@@@std@@QBEPBVResource@@XZ
	?_Checked_iterator_base@?$_Vector_iterator@PAUCacheEntry@HTTPCache@@V?$allocator@PAUCacheEntry@HTTPCache@@@std@@@std@@QBEPAPAUCacheEntry@HTTPCache@@XZ
	?_Checked_iterator_base@?$_Vector_iterator@U?$pair@V?$basic_string@DU?$char_traits@D@std@@V?$allocator@D@2@@std@@V?$vector@VResource@@V?$allocator@VResource@@@std@@@2@@std@@V?$allocator@U?$pair@V?$basic_string@DU?$char_traits@D@std@@V?$allocator@D@2@@std@@V?$vector@VResource@@V?$allocator@VResource@@@std@@@2@@std@@@2@@std@@QBEPAU?$pair@V?$basic_string@DU?$char_traits@D@std@@V?$allocator@D@2@@std@@V?$vector@VResource@@V?$allocator@VResource@@@std@@@2@@2@XZ
	?_Checked_iterator_base@?$_Vector_iterator@V?$basic_string@DU?$char_traits@D@std@@V?$allocator@D@2@@std@@V?$allocator@V?$basic_string@DU?$char_traits@D@std@@V?$allocator@D@2@@std@@@2@@std@@QBEPAV?$basic_string@DU?$char_traits@D@std@@V?$allocator@D@2@@2@XZ
	?_Checked_iterator_base@?$_Vector_iterator@VResource@@V?$allocator@VResource@@@std@@@std@@QBEPAVResource@@XZ
	?_Checked_iterator_base@?$reverse_iterator@Viterator@?$_Tree@V?$_Tset_traits@V?$basic_string@DU?$char_traits@D@std@@V?$allocator@D@2@@std@@UHeaderLess@@V?$allocator@V?$basic_string@DU?$char_traits@D@std@@V?$allocator@D@2@@std@@@2@$0A@@std@@@std@@@std@@QBE?AV12@XZ
	?_Color@?$_Tree@V?$_Tmap_traits@PAU_iobuf@@PAUCacheEntry@HTTPCache@@U?$less@PAU_iobuf@@@std@@V?$allocator@U?$pair@QAU_iobuf@@PAUCacheEntry@HTTPCache@@@std@@@5@$0A@@std@@@std@@KAAADPAU_Node@?$_Tree_nod@V?$_Tmap_traits@PAU_iobuf@@PAUCacheEntry@HTTPCache@@U?$less@PAU_iobuf@@@std@@V?$allocator@U?$pair@QAU_iobuf@@PAUCacheEntry@HTTPCache@@@std@@@5@$0A@@std@@@2@@Z
	?_Color@?$_Tree@V?$_Tmap_traits@V?$basic_string@DU?$char_traits@D@std@@V?$allocator@D@2@@std@@V12@U?$less@V?$basic_string@DU?$char_traits@D@std@@V?$allocator@D@2@@std@@@2@V?$allocator@U?$pair@$$CBV?$basic_string@DU?$char_traits@D@std@@V?$allocator@D@2@@std@@V12@@std@@@2@$0A@@std@@@std@@KAAADPAU_Node@?$_Tree_nod@V?$_Tmap_traits@V?$basic_string@DU?$char_traits@D@std@@V?$allocator@D@2@@std@@V12@U?$less@V?$basic_string@DU?$char_traits@D@std@@V?$allocator@D@2@@std@@@2@V?$allocator@U?$pair@$$CBV?$basic_string@DU?$char_traits@D@std@@V?$allocator@D@2@@std@@V12@@std@@@2@$0A@@std@@@2@@Z
	?_Color@?$_Tree@V?$_Tmap_traits@V?$basic_string@DU?$char_traits@D@std@@V?$allocator@D@2@@std@@V?$vector@VResource@@V?$allocator@VResource@@@std@@@2@U?$less@V?$basic_string@DU?$char_traits@D@std@@V?$allocator@D@2@@std@@@2@V?$allocator@U?$pair@$$CBV?$basic_string@DU?$char_traits@D@std@@V?$allocator@D@2@@std@@V?$vector@VResource@@V?$allocator@VResource@@@std@@@2@@std@@@2@$0A@@std@@@std@@KAAADPAU_Node@?$_Tree_nod@V?$_Tmap_traits@V?$basic_string@DU?$char_traits@D@std@@V?$allocator@D@2@@std@@V?$vector@VResource@@V?$allocator@VResource@@@std@@@2@U?$less@V?$basic_string@DU?$char_traits@D@std@@V?$allocator@D@2@@std@@@2@V?$allocator@U?$pair@$$CBV?$basic_string@DU?$char_traits@D@std@@V?$allocator@D@2@@std@@V?$vector@VResource@@V?$allocator@VResource@@@std@@@2@@std@@@2@$0A@@std@@@2@@Z
	?_Color@?$_Tree@V?$_Tset_traits@V?$basic_string@DU?$char_traits@D@std@@V?$allocator@D@2@@std@@UHeaderLess@@V?$allocator@V?$basic_string@DU?$char_traits@D@std@@V?$allocator@D@2@@std@@@2@$0A@@std@@@std@@KAAADPAU_Node@?$_Tree_nod@V?$_Tset_traits@V?$basic_string@DU?$char_traits@D@std@@V?$allocator@D@2@@std@@UHeaderLess@@V?$allocator@V?$basic_string@DU?$char_traits@D@std@@V?$allocator@D@2@@std@@@2@$0A@@std@@@2@@Z
	?_Construct_n@?$vector@VResource@@V?$allocator@VResource@@@std@@@std@@QAEXIABVResource@@@Z
	?_Dec@const_iterator@?$_Tree@V?$_Tmap_traits@PAU_iobuf@@PAUCacheEntry@HTTPCache@@U?$less@PAU_iobuf@@@std@@V?$allocator@U?$pair@QAU_iobuf@@PAUCacheEntry@HTTPCache@@@std@@@5@$0A@@std@@@std@@QAEXXZ
	?_Dec@const_iterator@?$_Tree@V?$_Tmap_traits@V?$basic_string@DU?$char_traits@D@std@@V?$allocator@D@2@@std@@V?$vector@VResource@@V?$allocator@VResource@@@std@@@2@U?$less@V?$basic_string@DU?$char_traits@D@std@@V?$allocator@D@2@@std@@@2@V?$allocator@U?$pair@$$CBV?$basic_string@DU?$char_traits@D@std@@V?$allocator@D@2@@std@@V?$vector@VResource@@V?$allocator@VResource@@@std@@@2@@std@@@2@$0A@@std@@@std@@QAEXXZ
	?_Dec@const_iterator@?$_Tree@V?$_Tset_traits@V?$basic_string@DU?$char_traits@D@std@@V?$allocator@D@2@@std@@UHeaderLess@@V?$allocator@V?$basic_string@DU?$char_traits@D@std@@V?$allocator@D@2@@std@@@2@$0A@@std@@@std@@QAEXXZ
	?_Destroy@?$vector@PAUCacheEntry@HTTPCache@@V?$allocator@PAUCacheEntry@HTTPCache@@@std@@@std@@IAEXPAPAUCacheEntry@HTTPCache@@0@Z
	?_Destroy@?$vector@U?$pair@V?$basic_string@DU?$char_traits@D@std@@V?$allocator@D@2@@std@@V?$vector@VResource@@V?$allocator@VResource@@@std@@@2@@std@@V?$allocator@U?$pair@V?$basic_string@DU?$char_traits@D@std@@V?$allocator@D@2@@std@@V?$vector@VResource@@V?$allocator@VResource@@@std@@@2@@std@@@2@@std@@IAEXPAU?$pair@V?$basic_string@DU?$char_traits@D@std@@V?$allocator@D@2@@std@@V?$vector@VResource@@V?$allocator@VResource@@@std@@@2@@2@0@Z
	?_Destroy@?$vector@V?$basic_string@DU?$char_traits@D@std@@V?$allocator@D@2@@std@@V?$allocator@V?$basic_string@DU?$char_traits@D@std@@V?$allocator@D@2@@std@@@2@@std@@IAEXPAV?$basic_string@DU?$char_traits@D@std@@V?$allocator@D@2@@2@0@Z
	?_Destroy@?$vector@VResource@@V?$allocator@VResource@@@std@@@std@@IAEXPAVResource@@0@Z
	?_EEM_DS@?$deque@PAVAttrTable@@V?$allocator@PAVAttrTable@@@std@@@std@@2HB
	?_EEM_DS@?$deque@PAVBaseType@@V?$allocator@PAVBaseType@@@std@@@std@@2HB
	?_EEM_DS@?$deque@W4ParseState@DDXParser@@V?$allocator@W4ParseState@DDXParser@@@std@@@std@@2HB
	?_Erase@?$_Tree@V?$_Tmap_traits@PAU_iobuf@@PAUCacheEntry@HTTPCache@@U?$less@PAU_iobuf@@@std@@V?$allocator@U?$pair@QAU_iobuf@@PAUCacheEntry@HTTPCache@@@std@@@5@$0A@@std@@@std@@IAEXPAU_Node@?$_Tree_nod@V?$_Tmap_traits@PAU_iobuf@@PAUCacheEntry@HTTPCache@@U?$less@PAU_iobuf@@@std@@V?$allocator@U?$pair@QAU_iobuf@@PAUCacheEntry@HTTPCache@@@std@@@5@$0A@@std@@@2@@Z
	?_Erase@?$_Tree@V?$_Tmap_traits@V?$basic_string@DU?$char_traits@D@std@@V?$allocator@D@2@@std@@V12@U?$less@V?$basic_string@DU?$char_traits@D@std@@V?$allocator@D@2@@std@@@2@V?$allocator@U?$pair@$$CBV?$basic_string@DU?$char_traits@D@std@@V?$allocator@D@2@@std@@V12@@std@@@2@$0A@@std@@@std@@IAEXPAU_Node@?$_Tree_nod@V?$_Tmap_traits@V?$basic_string@DU?$char_traits@D@std@@V?$allocator@D@2@@std@@V12@U?$less@V?$basic_string@DU?$char_traits@D@std@@V?$allocator@D@2@@std@@@2@V?$allocator@U?$pair@$$CBV?$basic_string@DU?$char_traits@D@std@@V?$allocator@D@2@@std@@V12@@std@@@2@$0A@@std@@@2@@Z
	?_Erase@?$_Tree@V?$_Tmap_traits@V?$basic_string@DU?$char_traits@D@std@@V?$allocator@D@2@@std@@V?$vector@VResource@@V?$allocator@VResource@@@std@@@2@U?$less@V?$basic_string@DU?$char_traits@D@std@@V?$allocator@D@2@@std@@@2@V?$allocator@U?$pair@$$CBV?$basic_string@DU?$char_traits@D@std@@V?$allocator@D@2@@std@@V?$vector@VResource@@V?$allocator@VResource@@@std@@@2@@std@@@2@$0A@@std@@@std@@IAEXPAU_Node@?$_Tree_nod@V?$_Tmap_traits@V?$basic_string@DU?$char_traits@D@std@@V?$allocator@D@2@@std@@V?$vector@VResource@@V?$allocator@VResource@@@std@@@2@U?$less@V?$basic_string@DU?$char_traits@D@std@@V?$allocator@D@2@@std@@@2@V?$allocator@U?$pair@$$CBV?$basic_string@DU?$char_traits@D@std@@V?$allocator@D@2@@std@@V?$vector@VResource@@V?$allocator@VResource@@@std@@@2@@std@@@2@$0A@@std@@@2@@Z
	?_Erase@?$_Tree@V?$_Tset_traits@V?$basic_string@DU?$char_traits@D@std@@V?$allocator@D@2@@std@@UHeaderLess@@V?$allocator@V?$basic_string@DU?$char_traits@D@std@@V?$allocator@D@2@@std@@@2@$0A@@std@@@std@@IAEXPAU_Node@?$_Tree_nod@V?$_Tset_traits@V?$basic_string@DU?$char_traits@D@std@@V?$allocator@D@2@@std@@UHeaderLess@@V?$allocator@V?$basic_string@DU?$char_traits@D@std@@V?$allocator@D@2@@std@@@2@$0A@@std@@@2@@Z
	?_Hardfail@?$_Iosb@H@std@@2W4_Iostate@12@B
	?_Inc@const_iterator@?$_Tree@V?$_Tmap_traits@PAU_iobuf@@PAUCacheEntry@HTTPCache@@U?$less@PAU_iobuf@@@std@@V?$allocator@U?$pair@QAU_iobuf@@PAUCacheEntry@HTTPCache@@@std@@@5@$0A@@std@@@std@@QAEXXZ
	?_Inc@const_iterator@?$_Tree@V?$_Tmap_traits@V?$basic_string@DU?$char_traits@D@std@@V?$allocator@D@2@@std@@V12@U?$less@V?$basic_string@DU?$char_traits@D@std@@V?$allocator@D@2@@std@@@2@V?$allocator@U?$pair@$$CBV?$basic_string@DU?$char_traits@D@std@@V?$allocator@D@2@@std@@V12@@std@@@2@$0A@@std@@@std@@QAEXXZ
	?_Inc@const_iterator@?$_Tree@V?$_Tmap_traits@V?$basic_string@DU?$char_traits@D@std@@V?$allocator@D@2@@std@@V?$vector@VResource@@V?$allocator@VResource@@@std@@@2@U?$less@V?$basic_string@DU?$char_traits@D@std@@V?$allocator@D@2@@std@@@2@V?$allocator@U?$pair@$$CBV?$basic_string@DU?$char_traits@D@std@@V?$allocator@D@2@@std@@V?$vector@VResource@@V?$allocator@VResource@@@std@@@2@@std@@@2@$0A@@std@@@std@@QAEXXZ
	?_Inc@const_iterator@?$_Tree@V?$_Tset_traits@V?$basic_string@DU?$char_traits@D@std@@V?$allocator@D@2@@std@@UHeaderLess@@V?$allocator@V?$basic_string@DU?$char_traits@D@std@@V?$allocator@D@2@@std@@@2@$0A@@std@@@std@@QAEXXZ
	?_Init@?$_Tree@V?$_Tmap_traits@PAU_iobuf@@PAUCacheEntry@HTTPCache@@U?$less@PAU_iobuf@@@std@@V?$allocator@U?$pair@QAU_iobuf@@PAUCacheEntry@HTTPCache@@@std@@@5@$0A@@std@@@std@@IAEXXZ
	?_Init@?$_Tree@V?$_Tmap_traits@V?$basic_string@DU?$char_traits@D@std@@V?$allocator@D@2@@std@@V12@U?$less@V?$basic_string@DU?$char_traits@D@std@@V?$allocator@D@2@@std@@@2@V?$allocator@U?$pair@$$CBV?$basic_string@DU?$char_traits@D@std@@V?$allocator@D@2@@std@@V12@@std@@@2@$0A@@std@@@std@@IAEXXZ
	?_Init@?$_Tree@V?$_Tmap_traits@V?$basic_string@DU?$char_traits@D@std@@V?$allocator@D@2@@std@@V?$vector@VResource@@V?$allocator@VResource@@@std@@@2@U?$less@V?$basic_string@DU?$char_traits@D@std@@V?$allocator@D@2@@std@@@2@V?$allocator@U?$pair@$$CBV?$basic_string@DU?$char_traits@D@std@@V?$allocator@D@2@@std@@V?$vector@VResource@@V?$allocator@VResource@@@std@@@2@@std@@@2@$0A@@std@@@std@@IAEXXZ
	?_Init@?$_Tree@V?$_Tset_traits@V?$basic_string@DU?$char_traits@D@std@@V?$allocator@D@2@@std@@UHeaderLess@@V?$allocator@V?$basic_string@DU?$char_traits@D@std@@V?$allocator@D@2@@std@@@2@$0A@@std@@@std@@IAEXXZ
	?_Insert@?$_Tree@V?$_Tmap_traits@PAU_iobuf@@PAUCacheEntry@HTTPCache@@U?$less@PAU_iobuf@@@std@@V?$allocator@U?$pair@QAU_iobuf@@PAUCacheEntry@HTTPCache@@@std@@@5@$0A@@std@@@std@@IAE?AViterator@12@_NPAU_Node@?$_Tree_nod@V?$_Tmap_traits@PAU_iobuf@@PAUCacheEntry@HTTPCache@@U?$less@PAU_iobuf@@@std@@V?$allocator@U?$pair@QAU_iobuf@@PAUCacheEntry@HTTPCache@@@std@@@5@$0A@@std@@@2@ABU?$pair@QAU_iobuf@@PAUCacheEntry@HTTPCache@@@2@@Z
	?_Insert@?$_Tree@V?$_Tmap_traits@V?$basic_string@DU?$char_traits@D@std@@V?$allocator@D@2@@std@@V?$vector@VResource@@V?$allocator@VResource@@@std@@@2@U?$less@V?$basic_string@DU?$char_traits@D@std@@V?$allocator@D@2@@std@@@2@V?$allocator@U?$pair@$$CBV?$basic_string@DU?$char_traits@D@std@@V?$allocator@D@2@@std@@V?$vector@VResource@@V?$allocator@VResource@@@std@@@2@@std@@@2@$0A@@std@@@std@@IAE?AViterator@12@_NPAU_Node@?$_Tree_nod@V?$_Tmap_traits@V?$basic_string@DU?$char_traits@D@std@@V?$allocator@D@2@@std@@V?$vector@VResource@@V?$allocator@VResource@@@std@@@2@U?$less@V?$basic_string@DU?$char_traits@D@std@@V?$allocator@D@2@@std@@@2@V?$allocator@U?$pair@$$CBV?$basic_string@DU?$char_traits@D@std@@V?$allocator@D@2@@std@@V?$vector@VResource@@V?$allocator@VResource@@@std@@@2@@std@@@2@$0A@@std@@@2@ABU?$pair@$$CBV?$basic_string@DU?$char_traits@D@std@@V?$allocator@D@2@@std@@V?$vector@VResource@@V?$allocator@VResource@@@std@@@2@@2@@Z
	?_Insert@?$_Tree@V?$_Tset_traits@V?$basic_string@DU?$char_traits@D@std@@V?$allocator@D@2@@std@@UHeaderLess@@V?$allocator@V?$basic_string@DU?$char_traits@D@std@@V?$allocator@D@2@@std@@@2@$0A@@std@@@std@@IAE?AViterator@12@_NPAU_Node@?$_Tree_nod@V?$_Tset_traits@V?$basic_string@DU?$char_traits@D@std@@V?$allocator@D@2@@std@@UHeaderLess@@V?$allocator@V?$basic_string@DU?$char_traits@D@std@@V?$allocator@D@2@@std@@@2@$0A@@std@@@2@ABV?$basic_string@DU?$char_traits@D@std@@V?$allocator@D@2@@2@@Z
	?_Insert_n@?$vector@PAUCacheEntry@HTTPCache@@V?$allocator@PAUCacheEntry@HTTPCache@@@std@@@std@@IAEXV?$_Vector_iterator@PAUCacheEntry@HTTPCache@@V?$allocator@PAUCacheEntry@HTTPCache@@@std@@@2@IABQAUCacheEntry@HTTPCache@@@Z
	?_Insert_n@?$vector@U?$pair@V?$basic_string@DU?$char_traits@D@std@@V?$allocator@D@2@@std@@V?$vector@VResource@@V?$allocator@VResource@@@std@@@2@@std@@V?$allocator@U?$pair@V?$basic_string@DU?$char_traits@D@std@@V?$allocator@D@2@@std@@V?$vector@VResource@@V?$allocator@VResource@@@std@@@2@@std@@@2@@std@@IAEXV?$_Vector_iterator@U?$pair@V?$basic_string@DU?$char_traits@D@std@@V?$allocator@D@2@@std@@V?$vector@VResource@@V?$allocator@VResource@@@std@@@2@@std@@V?$allocator@U?$pair@V?$basic_string@DU?$char_traits@D@std@@V?$allocator@D@2@@std@@V?$vector@VResource@@V?$allocator@VResource@@@std@@@2@@std@@@2@@2@IABU?$pair@V?$basic_string@DU?$char_traits@D@std@@V?$allocator@D@2@@std@@V?$vector@VResource@@V?$allocator@VResource@@@std@@@2@@2@@Z
	?_Insert_n@?$vector@V?$basic_string@DU?$char_traits@D@std@@V?$allocator@D@2@@std@@V?$allocator@V?$basic_string@DU?$char_traits@D@std@@V?$allocator@D@2@@std@@@2@@std@@IAEXV?$_Vector_iterator@V?$basic_string@DU?$char_traits@D@std@@V?$allocator@D@2@@std@@V?$allocator@V?$basic_string@DU?$char_traits@D@std@@V?$allocator@D@2@@std@@@2@@2@IABV?$basic_string@DU?$char_traits@D@std@@V?$allocator@D@2@@2@@Z
	?_Insert_n@?$vector@VResource@@V?$allocator@VResource@@@std@@@std@@IAEXV?$_Vector_iterator@VResource@@V?$allocator@VResource@@@std@@@2@IABVResource@@@Z
	?_Isnil@?$_Tree@V?$_Tmap_traits@PAU_iobuf@@PAUCacheEntry@HTTPCache@@U?$less@PAU_iobuf@@@std@@V?$allocator@U?$pair@QAU_iobuf@@PAUCacheEntry@HTTPCache@@@std@@@5@$0A@@std@@@std@@KAAADPAU_Node@?$_Tree_nod@V?$_Tmap_traits@PAU_iobuf@@PAUCacheEntry@HTTPCache@@U?$less@PAU_iobuf@@@std@@V?$allocator@U?$pair@QAU_iobuf@@PAUCacheEntry@HTTPCache@@@std@@@5@$0A@@std@@@2@@Z
	?_Isnil@?$_Tree@V?$_Tmap_traits@V?$basic_string@DU?$char_traits@D@std@@V?$allocator@D@2@@std@@V12@U?$less@V?$basic_string@DU?$char_traits@D@std@@V?$allocator@D@2@@std@@@2@V?$allocator@U?$pair@$$CBV?$basic_string@DU?$char_traits@D@std@@V?$allocator@D@2@@std@@V12@@std@@@2@$0A@@std@@@std@@KAAADPAU_Node@?$_Tree_nod@V?$_Tmap_traits@V?$basic_string@DU?$char_traits@D@std@@V?$allocator@D@2@@std@@V12@U?$less@V?$basic_string@DU?$char_traits@D@std@@V?$allocator@D@2@@std@@@2@V?$allocator@U?$pair@$$CBV?$basic_string@DU?$char_traits@D@std@@V?$allocator@D@2@@std@@V12@@std@@@2@$0A@@std@@@2@@Z
	?_Isnil@?$_Tree@V?$_Tmap_traits@V?$basic_string@DU?$char_traits@D@std@@V?$allocator@D@2@@std@@V?$vector@VResource@@V?$allocator@VResource@@@std@@@2@U?$less@V?$basic_string@DU?$char_traits@D@std@@V?$allocator@D@2@@std@@@2@V?$allocator@U?$pair@$$CBV?$basic_string@DU?$char_traits@D@std@@V?$allocator@D@2@@std@@V?$vector@VResource@@V?$allocator@VResource@@@std@@@2@@std@@@2@$0A@@std@@@std@@KAAADPAU_Node@?$_Tree_nod@V?$_Tmap_traits@V?$basic_string@DU?$char_traits@D@std@@V?$allocator@D@2@@std@@V?$vector@VResource@@V?$allocator@VResource@@@std@@@2@U?$less@V?$basic_string@DU?$char_traits@D@std@@V?$allocator@D@2@@std@@@2@V?$allocator@U?$pair@$$CBV?$basic_string@DU?$char_traits@D@std@@V?$allocator@D@2@@std@@V?$vector@VResource@@V?$allocator@VResource@@@std@@@2@@std@@@2@$0A@@std@@@2@@Z
	?_Isnil@?$_Tree@V?$_Tset_traits@V?$basic_string@DU?$char_traits@D@std@@V?$allocator@D@2@@std@@UHeaderLess@@V?$allocator@V?$basic_string@DU?$char_traits@D@std@@V?$allocator@D@2@@std@@@2@$0A@@std@@@std@@KAAADPAU_Node@?$_Tree_nod@V?$_Tset_traits@V?$basic_string@DU?$char_traits@D@std@@V?$allocator@D@2@@std@@UHeaderLess@@V?$allocator@V?$basic_string@DU?$char_traits@D@std@@V?$allocator@D@2@@std@@@2@$0A@@std@@@2@@Z
	?_Key@?$_Tree@V?$_Tmap_traits@PAU_iobuf@@PAUCacheEntry@HTTPCache@@U?$less@PAU_iobuf@@@std@@V?$allocator@U?$pair@QAU_iobuf@@PAUCacheEntry@HTTPCache@@@std@@@5@$0A@@std@@@std@@KAABQAU_iobuf@@PAU_Node@?$_Tree_nod@V?$_Tmap_traits@PAU_iobuf@@PAUCacheEntry@HTTPCache@@U?$less@PAU_iobuf@@@std@@V?$allocator@U?$pair@QAU_iobuf@@PAUCacheEntry@HTTPCache@@@std@@@5@$0A@@std@@@2@@Z
	?_Key@?$_Tree@V?$_Tmap_traits@V?$basic_string@DU?$char_traits@D@std@@V?$allocator@D@2@@std@@V?$vector@VResource@@V?$allocator@VResource@@@std@@@2@U?$less@V?$basic_string@DU?$char_traits@D@std@@V?$allocator@D@2@@std@@@2@V?$allocator@U?$pair@$$CBV?$basic_string@DU?$char_traits@D@std@@V?$allocator@D@2@@std@@V?$vector@VResource@@V?$allocator@VResource@@@std@@@2@@std@@@2@$0A@@std@@@std@@KAABV?$basic_string@DU?$char_traits@D@std@@V?$allocator@D@2@@2@PAU_Node@?$_Tree_nod@V?$_Tmap_traits@V?$basic_string@DU?$char_traits@D@std@@V?$allocator@D@2@@std@@V?$vector@VResource@@V?$allocator@VResource@@@std@@@2@U?$less@V?$basic_string@DU?$char_traits@D@std@@V?$allocator@D@2@@std@@@2@V?$allocator@U?$pair@$$CBV?$basic_string@DU?$char_traits@D@std@@V?$allocator@D@2@@std@@V?$vector@VResource@@V?$allocator@VResource@@@std@@@2@@std@@@2@$0A@@std@@@2@@Z
	?_Key@?$_Tree@V?$_Tset_traits@V?$basic_string@DU?$char_traits@D@std@@V?$allocator@D@2@@std@@UHeaderLess@@V?$allocator@V?$basic_string@DU?$char_traits@D@std@@V?$allocator@D@2@@std@@@2@$0A@@std@@@std@@KAABV?$basic_string@DU?$char_traits@D@std@@V?$allocator@D@2@@2@PAU_Node@?$_Tree_nod@V?$_Tset_traits@V?$basic_string@DU?$char_traits@D@std@@V?$allocator@D@2@@std@@UHeaderLess@@V?$allocator@V?$basic_string@DU?$char_traits@D@std@@V?$allocator@D@2@@std@@@2@$0A@@std@@@2@@Z
	?_Kfn@?$_Tmap_traits@PAU_iobuf@@PAUCacheEntry@HTTPCache@@U?$less@PAU_iobuf@@@std@@V?$allocator@U?$pair@QAU_iobuf@@PAUCacheEntry@HTTPCache@@@std@@@5@$0A@@std@@SAABQAU_iobuf@@ABU?$pair@QAU_iobuf@@PAUCacheEntry@HTTPCache@@@2@@Z
	?_Kfn@?$_Tmap_traits@V?$basic_string@DU?$char_traits@D@std@@V?$allocator@D@2@@std@@V?$vector@VResource@@V?$allocator@VResource@@@std@@@2@U?$less@V?$basic_string@DU?$char_traits@D@std@@V?$allocator@D@2@@std@@@2@V?$allocator@U?$pair@$$CBV?$basic_string@DU?$char_traits@D@std@@V?$allocator@D@2@@std@@V?$vector@VResource@@V?$allocator@VResource@@@std@@@2@@std@@@2@$0A@@std@@SAABV?$basic_string@DU?$char_traits@D@std@@V?$allocator@D@2@@2@ABU?$pair@$$CBV?$basic_string@DU?$char_traits@D@std@@V?$allocator@D@2@@std@@V?$vector@VResource@@V?$allocator@VResource@@@std@@@2@@2@@Z
	?_Kfn@?$_Tset_traits@V?$basic_string@DU?$char_traits@D@std@@V?$allocator@D@2@@std@@UHeaderLess@@V?$allocator@V?$basic_string@DU?$char_traits@D@std@@V?$allocator@D@2@@std@@@2@$0A@@std@@SAABV?$basic_string@DU?$char_traits@D@std@@V?$allocator@D@2@@2@ABV32@@Z
	?_Lbound@?$_Tree@V?$_Tmap_traits@PAU_iobuf@@PAUCacheEntry@HTTPCache@@U?$less@PAU_iobuf@@@std@@V?$allocator@U?$pair@QAU_iobuf@@PAUCacheEntry@HTTPCache@@@std@@@5@$0A@@std@@@std@@IBEPAU_Node@?$_Tree_nod@V?$_Tmap_traits@PAU_iobuf@@PAUCacheEntry@HTTPCache@@U?$less@PAU_iobuf@@@std@@V?$allocator@U?$pair@QAU_iobuf@@PAUCacheEntry@HTTPCache@@@std@@@5@$0A@@std@@@2@ABQAU_iobuf@@@Z
	?_Lbound@?$_Tree@V?$_Tmap_traits@V?$basic_string@DU?$char_traits@D@std@@V?$allocator@D@2@@std@@V?$vector@VResource@@V?$allocator@VResource@@@std@@@2@U?$less@V?$basic_string@DU?$char_traits@D@std@@V?$allocator@D@2@@std@@@2@V?$allocator@U?$pair@$$CBV?$basic_string@DU?$char_traits@D@std@@V?$allocator@D@2@@std@@V?$vector@VResource@@V?$allocator@VResource@@@std@@@2@@std@@@2@$0A@@std@@@std@@IBEPAU_Node@?$_Tree_nod@V?$_Tmap_traits@V?$basic_string@DU?$char_traits@D@std@@V?$allocator@D@2@@std@@V?$vector@VResource@@V?$allocator@VResource@@@std@@@2@U?$less@V?$basic_string@DU?$char_traits@D@std@@V?$allocator@D@2@@std@@@2@V?$allocator@U?$pair@$$CBV?$basic_string@DU?$char_traits@D@std@@V?$allocator@D@2@@std@@V?$vector@VResource@@V?$allocator@VResource@@@std@@@2@@std@@@2@$0A@@std@@@2@ABV?$basic_string@DU?$char_traits@D@std@@V?$allocator@D@2@@2@@Z
	?_Left@?$_Tree@V?$_Tmap_traits@PAU_iobuf@@PAUCacheEntry@HTTPCache@@U?$less@PAU_iobuf@@@std@@V?$allocator@U?$pair@QAU_iobuf@@PAUCacheEntry@HTTPCache@@@std@@@5@$0A@@std@@@std@@KAAAPAU_Node@?$_Tree_nod@V?$_Tmap_traits@PAU_iobuf@@PAUCacheEntry@HTTPCache@@U?$less@PAU_iobuf@@@std@@V?$allocator@U?$pair@QAU_iobuf@@PAUCacheEntry@HTTPCache@@@std@@@5@$0A@@std@@@2@PAU342@@Z
	?_Left@?$_Tree@V?$_Tmap_traits@V?$basic_string@DU?$char_traits@D@std@@V?$allocator@D@2@@std@@V12@U?$less@V?$basic_string@DU?$char_traits@D@std@@V?$allocator@D@2@@std@@@2@V?$allocator@U?$pair@$$CBV?$basic_string@DU?$char_traits@D@std@@V?$allocator@D@2@@std@@V12@@std@@@2@$0A@@std@@@std@@KAAAPAU_Node@?$_Tree_nod@V?$_Tmap_traits@V?$basic_string@DU?$char_traits@D@std@@V?$allocator@D@2@@std@@V12@U?$less@V?$basic_string@DU?$char_traits@D@std@@V?$allocator@D@2@@std@@@2@V?$allocator@U?$pair@$$CBV?$basic_string@DU?$char_traits@D@std@@V?$allocator@D@2@@std@@V12@@std@@@2@$0A@@std@@@2@PAU342@@Z
	?_Left@?$_Tree@V?$_Tmap_traits@V?$basic_string@DU?$char_traits@D@std@@V?$allocator@D@2@@std@@V?$vector@VResource@@V?$allocator@VResource@@@std@@@2@U?$less@V?$basic_string@DU?$char_traits@D@std@@V?$allocator@D@2@@std@@@2@V?$allocator@U?$pair@$$CBV?$basic_string@DU?$char_traits@D@std@@V?$allocator@D@2@@std@@V?$vector@VResource@@V?$allocator@VResource@@@std@@@2@@std@@@2@$0A@@std@@@std@@KAAAPAU_Node@?$_Tree_nod@V?$_Tmap_traits@V?$basic_string@DU?$char_traits@D@std@@V?$allocator@D@2@@std@@V?$vector@VResource@@V?$allocator@VResource@@@std@@@2@U?$less@V?$basic_string@DU?$char_traits@D@std@@V?$allocator@D@2@@std@@@2@V?$allocator@U?$pair@$$CBV?$basic_string@DU?$char_traits@D@std@@V?$allocator@D@2@@std@@V?$vector@VResource@@V?$allocator@VResource@@@std@@@2@@std@@@2@$0A@@std@@@2@PAU342@@Z
	?_Left@?$_Tree@V?$_Tset_traits@V?$basic_string@DU?$char_traits@D@std@@V?$allocator@D@2@@std@@UHeaderLess@@V?$allocator@V?$basic_string@DU?$char_traits@D@std@@V?$allocator@D@2@@std@@@2@$0A@@std@@@std@@KAAAPAU_Node@?$_Tree_nod@V?$_Tset_traits@V?$basic_string@DU?$char_traits@D@std@@V?$allocator@D@2@@std@@UHeaderLess@@V?$allocator@V?$basic_string@DU?$char_traits@D@std@@V?$allocator@D@2@@std@@@2@$0A@@std@@@2@PAU342@@Z
	?_Lmost@?$_Tree@V?$_Tmap_traits@PAU_iobuf@@PAUCacheEntry@HTTPCache@@U?$less@PAU_iobuf@@@std@@V?$allocator@U?$pair@QAU_iobuf@@PAUCacheEntry@HTTPCache@@@std@@@5@$0A@@std@@@std@@IBEAAPAU_Node@?$_Tree_nod@V?$_Tmap_traits@PAU_iobuf@@PAUCacheEntry@HTTPCache@@U?$less@PAU_iobuf@@@std@@V?$allocator@U?$pair@QAU_iobuf@@PAUCacheEntry@HTTPCache@@@std@@@5@$0A@@std@@@2@XZ
	?_Lmost@?$_Tree@V?$_Tmap_traits@V?$basic_string@DU?$char_traits@D@std@@V?$allocator@D@2@@std@@V12@U?$less@V?$basic_string@DU?$char_traits@D@std@@V?$allocator@D@2@@std@@@2@V?$allocator@U?$pair@$$CBV?$basic_string@DU?$char_traits@D@std@@V?$allocator@D@2@@std@@V12@@std@@@2@$0A@@std@@@std@@IBEAAPAU_Node@?$_Tree_nod@V?$_Tmap_traits@V?$basic_string@DU?$char_traits@D@std@@V?$allocator@D@2@@std@@V12@U?$less@V?$basic_string@DU?$char_traits@D@std@@V?$allocator@D@2@@std@@@2@V?$allocator@U?$pair@$$CBV?$basic_string@DU?$char_traits@D@std@@V?$allocator@D@2@@std@@V12@@std@@@2@$0A@@std@@@2@XZ
	?_Lmost@?$_Tree@V?$_Tmap_traits@V?$basic_string@DU?$char_traits@D@std@@V?$allocator@D@2@@std@@V?$vector@VResource@@V?$allocator@VResource@@@std@@@2@U?$less@V?$basic_string@DU?$char_traits@D@std@@V?$allocator@D@2@@std@@@2@V?$allocator@U?$pair@$$CBV?$basic_string@DU?$char_traits@D@std@@V?$allocator@D@2@@std@@V?$vector@VResource@@V?$allocator@VResource@@@std@@@2@@std@@@2@$0A@@std@@@std@@IBEAAPAU_Node@?$_Tree_nod@V?$_Tmap_traits@V?$basic_string@DU?$char_traits@D@std@@V?$allocator@D@2@@std@@V?$vector@VResource@@V?$allocator@VResource@@@std@@@2@U?$less@V?$basic_string@DU?$char_traits@D@std@@V?$allocator@D@2@@std@@@2@V?$allocator@U?$pair@$$CBV?$basic_string@DU?$char_traits@D@std@@V?$allocator@D@2@@std@@V?$vector@VResource@@V?$allocator@VResource@@@std@@@2@@std@@@2@$0A@@std@@@2@XZ
	?_Lmost@?$_Tree@V?$_Tset_traits@V?$basic_string@DU?$char_traits@D@std@@V?$allocator@D@2@@std@@UHeaderLess@@V?$allocator@V?$basic_string@DU?$char_traits@D@std@@V?$allocator@D@2@@std@@@2@$0A@@std@@@std@@IBEAAPAU_Node@?$_Tree_nod@V?$_Tset_traits@V?$basic_string@DU?$char_traits@D@std@@V?$allocator@D@2@@std@@UHeaderLess@@V?$allocator@V?$basic_string@DU?$char_traits@D@std@@V?$allocator@D@2@@std@@@2@$0A@@std@@@2@XZ
	?_Lrotate@?$_Tree@V?$_Tmap_traits@PAU_iobuf@@PAUCacheEntry@HTTPCache@@U?$less@PAU_iobuf@@@std@@V?$allocator@U?$pair@QAU_iobuf@@PAUCacheEntry@HTTPCache@@@std@@@5@$0A@@std@@@std@@IAEXPAU_Node@?$_Tree_nod@V?$_Tmap_traits@PAU_iobuf@@PAUCacheEntry@HTTPCache@@U?$less@PAU_iobuf@@@std@@V?$allocator@U?$pair@QAU_iobuf@@PAUCacheEntry@HTTPCache@@@std@@@5@$0A@@std@@@2@@Z
	?_Lrotate@?$_Tree@V?$_Tmap_traits@V?$basic_string@DU?$char_traits@D@std@@V?$allocator@D@2@@std@@V12@U?$less@V?$basic_string@DU?$char_traits@D@std@@V?$allocator@D@2@@std@@@2@V?$allocator@U?$pair@$$CBV?$basic_string@DU?$char_traits@D@std@@V?$allocator@D@2@@std@@V12@@std@@@2@$0A@@std@@@std@@IAEXPAU_Node@?$_Tree_nod@V?$_Tmap_traits@V?$basic_string@DU?$char_traits@D@std@@V?$allocator@D@2@@std@@V12@U?$less@V?$basic_string@DU?$char_traits@D@std@@V?$allocator@D@2@@std@@@2@V?$allocator@U?$pair@$$CBV?$basic_string@DU?$char_traits@D@std@@V?$allocator@D@2@@std@@V12@@std@@@2@$0A@@std@@@2@@Z
	?_Lrotate@?$_Tree@V?$_Tmap_traits@V?$basic_string@DU?$char_traits@D@std@@V?$allocator@D@2@@std@@V?$vector@VResource@@V?$allocator@VResource@@@std@@@2@U?$less@V?$basic_string@DU?$char_traits@D@std@@V?$allocator@D@2@@std@@@2@V?$allocator@U?$pair@$$CBV?$basic_string@DU?$char_traits@D@std@@V?$allocator@D@2@@std@@V?$vector@VResource@@V?$allocator@VResource@@@std@@@2@@std@@@2@$0A@@std@@@std@@IAEXPAU_Node@?$_Tree_nod@V?$_Tmap_traits@V?$basic_string@DU?$char_traits@D@std@@V?$allocator@D@2@@std@@V?$vector@VResource@@V?$allocator@VResource@@@std@@@2@U?$less@V?$basic_string@DU?$char_traits@D@std@@V?$allocator@D@2@@std@@@2@V?$allocator@U?$pair@$$CBV?$basic_string@DU?$char_traits@D@std@@V?$allocator@D@2@@std@@V?$vector@VResource@@V?$allocator@VResource@@@std@@@2@@std@@@2@$0A@@std@@@2@@Z
	?_Lrotate@?$_Tree@V?$_Tset_traits@V?$basic_string@DU?$char_traits@D@std@@V?$allocator@D@2@@std@@UHeaderLess@@V?$allocator@V?$basic_string@DU?$char_traits@D@std@@V?$allocator@D@2@@std@@@2@$0A@@std@@@std@@IAEXPAU_Node@?$_Tree_nod@V?$_Tset_traits@V?$basic_string@DU?$char_traits@D@std@@V?$allocator@D@2@@std@@UHeaderLess@@V?$allocator@V?$basic_string@DU?$char_traits@D@std@@V?$allocator@D@2@@std@@@2@$0A@@std@@@2@@Z
	?_Max@?$_Tree@V?$_Tmap_traits@PAU_iobuf@@PAUCacheEntry@HTTPCache@@U?$less@PAU_iobuf@@@std@@V?$allocator@U?$pair@QAU_iobuf@@PAUCacheEntry@HTTPCache@@@std@@@5@$0A@@std@@@std@@KAPAU_Node@?$_Tree_nod@V?$_Tmap_traits@PAU_iobuf@@PAUCacheEntry@HTTPCache@@U?$less@PAU_iobuf@@@std@@V?$allocator@U?$pair@QAU_iobuf@@PAUCacheEntry@HTTPCache@@@std@@@5@$0A@@std@@@2@PAU342@@Z
	?_Max@?$_Tree@V?$_Tmap_traits@V?$basic_string@DU?$char_traits@D@std@@V?$allocator@D@2@@std@@V12@U?$less@V?$basic_string@DU?$char_traits@D@std@@V?$allocator@D@2@@std@@@2@V?$allocator@U?$pair@$$CBV?$basic_string@DU?$char_traits@D@std@@V?$allocator@D@2@@std@@V12@@std@@@2@$0A@@std@@@std@@KAPAU_Node@?$_Tree_nod@V?$_Tmap_traits@V?$basic_string@DU?$char_traits@D@std@@V?$allocator@D@2@@std@@V12@U?$less@V?$basic_string@DU?$char_traits@D@std@@V?$allocator@D@2@@std@@@2@V?$allocator@U?$pair@$$CBV?$basic_string@DU?$char_traits@D@std@@V?$allocator@D@2@@std@@V12@@std@@@2@$0A@@std@@@2@PAU342@@Z
	?_Max@?$_Tree@V?$_Tmap_traits@V?$basic_string@DU?$char_traits@D@std@@V?$allocator@D@2@@std@@V?$vector@VResource@@V?$allocator@VResource@@@std@@@2@U?$less@V?$basic_string@DU?$char_traits@D@std@@V?$allocator@D@2@@std@@@2@V?$allocator@U?$pair@$$CBV?$basic_string@DU?$char_traits@D@std@@V?$allocator@D@2@@std@@V?$vector@VResource@@V?$allocator@VResource@@@std@@@2@@std@@@2@$0A@@std@@@std@@KAPAU_Node@?$_Tree_nod@V?$_Tmap_traits@V?$basic_string@DU?$char_traits@D@std@@V?$allocator@D@2@@std@@V?$vector@VResource@@V?$allocator@VResource@@@std@@@2@U?$less@V?$basic_string@DU?$char_traits@D@std@@V?$allocator@D@2@@std@@@2@V?$allocator@U?$pair@$$CBV?$basic_string@DU?$char_traits@D@std@@V?$allocator@D@2@@std@@V?$vector@VResource@@V?$allocator@VResource@@@std@@@2@@std@@@2@$0A@@std@@@2@PAU342@@Z
	?_Max@?$_Tree@V?$_Tset_traits@V?$basic_string@DU?$char_traits@D@std@@V?$allocator@D@2@@std@@UHeaderLess@@V?$allocator@V?$basic_string@DU?$char_traits@D@std@@V?$allocator@D@2@@std@@@2@$0A@@std@@@std@@KAPAU_Node@?$_Tree_nod@V?$_Tset_traits@V?$basic_string@DU?$char_traits@D@std@@V?$allocator@D@2@@std@@UHeaderLess@@V?$allocator@V?$basic_string@DU?$char_traits@D@std@@V?$allocator@D@2@@std@@@2@$0A@@std@@@2@PAU342@@Z
	?_Min@?$_Tree@V?$_Tmap_traits@PAU_iobuf@@PAUCacheEntry@HTTPCache@@U?$less@PAU_iobuf@@@std@@V?$allocator@U?$pair@QAU_iobuf@@PAUCacheEntry@HTTPCache@@@std@@@5@$0A@@std@@@std@@KAPAU_Node@?$_Tree_nod@V?$_Tmap_traits@PAU_iobuf@@PAUCacheEntry@HTTPCache@@U?$less@PAU_iobuf@@@std@@V?$allocator@U?$pair@QAU_iobuf@@PAUCacheEntry@HTTPCache@@@std@@@5@$0A@@std@@@2@PAU342@@Z
	?_Min@?$_Tree@V?$_Tmap_traits@V?$basic_string@DU?$char_traits@D@std@@V?$allocator@D@2@@std@@V12@U?$less@V?$basic_string@DU?$char_traits@D@std@@V?$allocator@D@2@@std@@@2@V?$allocator@U?$pair@$$CBV?$basic_string@DU?$char_traits@D@std@@V?$allocator@D@2@@std@@V12@@std@@@2@$0A@@std@@@std@@KAPAU_Node@?$_Tree_nod@V?$_Tmap_traits@V?$basic_string@DU?$char_traits@D@std@@V?$allocator@D@2@@std@@V12@U?$less@V?$basic_string@DU?$char_traits@D@std@@V?$allocator@D@2@@std@@@2@V?$allocator@U?$pair@$$CBV?$basic_string@DU?$char_traits@D@std@@V?$allocator@D@2@@std@@V12@@std@@@2@$0A@@std@@@2@PAU342@@Z
	?_Min@?$_Tree@V?$_Tmap_traits@V?$basic_string@DU?$char_traits@D@std@@V?$allocator@D@2@@std@@V?$vector@VResource@@V?$allocator@VResource@@@std@@@2@U?$less@V?$basic_string@DU?$char_traits@D@std@@V?$allocator@D@2@@std@@@2@V?$allocator@U?$pair@$$CBV?$basic_string@DU?$char_traits@D@std@@V?$allocator@D@2@@std@@V?$vector@VResource@@V?$allocator@VResource@@@std@@@2@@std@@@2@$0A@@std@@@std@@KAPAU_Node@?$_Tree_nod@V?$_Tmap_traits@V?$basic_string@DU?$char_traits@D@std@@V?$allocator@D@2@@std@@V?$vector@VResource@@V?$allocator@VResource@@@std@@@2@U?$less@V?$basic_string@DU?$char_traits@D@std@@V?$allocator@D@2@@std@@@2@V?$allocator@U?$pair@$$CBV?$basic_string@DU?$char_traits@D@std@@V?$allocator@D@2@@std@@V?$vector@VResource@@V?$allocator@VResource@@@std@@@2@@std@@@2@$0A@@std@@@2@PAU342@@Z
	?_Min@?$_Tree@V?$_Tset_traits@V?$basic_string@DU?$char_traits@D@std@@V?$allocator@D@2@@std@@UHeaderLess@@V?$allocator@V?$basic_string@DU?$char_traits@D@std@@V?$allocator@D@2@@std@@@2@$0A@@std@@@std@@KAPAU_Node@?$_Tree_nod@V?$_Tset_traits@V?$basic_string@DU?$char_traits@D@std@@V?$allocator@D@2@@std@@UHeaderLess@@V?$allocator@V?$basic_string@DU?$char_traits@D@std@@V?$allocator@D@2@@std@@@2@$0A@@std@@@2@PAU342@@Z
	?_Mynode@const_iterator@?$_Tree@V?$_Tmap_traits@PAU_iobuf@@PAUCacheEntry@HTTPCache@@U?$less@PAU_iobuf@@@std@@V?$allocator@U?$pair@QAU_iobuf@@PAUCacheEntry@HTTPCache@@@std@@@5@$0A@@std@@@std@@QBEPAU_Node@?$_Tree_nod@V?$_Tmap_traits@PAU_iobuf@@PAUCacheEntry@HTTPCache@@U?$less@PAU_iobuf@@@std@@V?$allocator@U?$pair@QAU_iobuf@@PAUCacheEntry@HTTPCache@@@std@@@5@$0A@@std@@@3@XZ
	?_Mynode@const_iterator@?$_Tree@V?$_Tmap_traits@V?$basic_string@DU?$char_traits@D@std@@V?$allocator@D@2@@std@@V12@U?$less@V?$basic_string@DU?$char_traits@D@std@@V?$allocator@D@2@@std@@@2@V?$allocator@U?$pair@$$CBV?$basic_string@DU?$char_traits@D@std@@V?$allocator@D@2@@std@@V12@@std@@@2@$0A@@std@@@std@@QBEPAU_Node@?$_Tree_nod@V?$_Tmap_traits@V?$basic_string@DU?$char_traits@D@std@@V?$allocator@D@2@@std@@V12@U?$less@V?$basic_string@DU?$char_traits@D@std@@V?$allocator@D@2@@std@@@2@V?$allocator@U?$pair@$$CBV?$basic_string@DU?$char_traits@D@std@@V?$allocator@D@2@@std@@V12@@std@@@2@$0A@@std@@@3@XZ
	?_Mynode@const_iterator@?$_Tree@V?$_Tmap_traits@V?$basic_string@DU?$char_traits@D@std@@V?$allocator@D@2@@std@@V?$vector@VResource@@V?$allocator@VResource@@@std@@@2@U?$less@V?$basic_string@DU?$char_traits@D@std@@V?$allocator@D@2@@std@@@2@V?$allocator@U?$pair@$$CBV?$basic_string@DU?$char_traits@D@std@@V?$allocator@D@2@@std@@V?$vector@VResource@@V?$allocator@VResource@@@std@@@2@@std@@@2@$0A@@std@@@std@@QBEPAU_Node@?$_Tree_nod@V?$_Tmap_traits@V?$basic_string@DU?$char_traits@D@std@@V?$allocator@D@2@@std@@V?$vector@VResource@@V?$allocator@VResource@@@std@@@2@U?$less@V?$basic_string@DU?$char_traits@D@std@@V?$allocator@D@2@@std@@@2@V?$allocator@U?$pair@$$CBV?$basic_string@DU?$char_traits@D@std@@V?$allocator@D@2@@std@@V?$vector@VResource@@V?$allocator@VResource@@@std@@@2@@std@@@2@$0A@@std@@@3@XZ
	?_Mynode@const_iterator@?$_Tree@V?$_Tset_traits@V?$basic_string@DU?$char_traits@D@std@@V?$allocator@D@2@@std@@UHeaderLess@@V?$allocator@V?$basic_string@DU?$char_traits@D@std@@V?$allocator@D@2@@std@@@2@$0A@@std@@@std@@QBEPAU_Node@?$_Tree_nod@V?$_Tset_traits@V?$basic_string@DU?$char_traits@D@std@@V?$allocator@D@2@@std@@UHeaderLess@@V?$allocator@V?$basic_string@DU?$char_traits@D@std@@V?$allocator@D@2@@std@@@2@$0A@@std@@@3@XZ
	?_Myval@?$_Tree@V?$_Tmap_traits@PAU_iobuf@@PAUCacheEntry@HTTPCache@@U?$less@PAU_iobuf@@@std@@V?$allocator@U?$pair@QAU_iobuf@@PAUCacheEntry@HTTPCache@@@std@@@5@$0A@@std@@@std@@KAAAU?$pair@QAU_iobuf@@PAUCacheEntry@HTTPCache@@@2@PAU_Node@?$_Tree_nod@V?$_Tmap_traits@PAU_iobuf@@PAUCacheEntry@HTTPCache@@U?$less@PAU_iobuf@@@std@@V?$allocator@U?$pair@QAU_iobuf@@PAUCacheEntry@HTTPCache@@@std@@@5@$0A@@std@@@2@@Z
	?_Myval@?$_Tree@V?$_Tmap_traits@V?$basic_string@DU?$char_traits@D@std@@V?$allocator@D@2@@std@@V?$vector@VResource@@V?$allocator@VResource@@@std@@@2@U?$less@V?$basic_string@DU?$char_traits@D@std@@V?$allocator@D@2@@std@@@2@V?$allocator@U?$pair@$$CBV?$basic_string@DU?$char_traits@D@std@@V?$allocator@D@2@@std@@V?$vector@VResource@@V?$allocator@VResource@@@std@@@2@@std@@@2@$0A@@std@@@std@@KAAAU?$pair@$$CBV?$basic_string@DU?$char_traits@D@std@@V?$allocator@D@2@@std@@V?$vector@VResource@@V?$allocator@VResource@@@std@@@2@@2@PAU_Node@?$_Tree_nod@V?$_Tmap_traits@V?$basic_string@DU?$char_traits@D@std@@V?$allocator@D@2@@std@@V?$vector@VResource@@V?$allocator@VResource@@@std@@@2@U?$less@V?$basic_string@DU?$char_traits@D@std@@V?$allocator@D@2@@std@@@2@V?$allocator@U?$pair@$$CBV?$basic_string@DU?$char_traits@D@std@@V?$allocator@D@2@@std@@V?$vector@VResource@@V?$allocator@VResource@@@std@@@2@@std@@@2@$0A@@std@@@2@@Z
	?_Myval@?$_Tree@V?$_Tset_traits@V?$basic_string@DU?$char_traits@D@std@@V?$allocator@D@2@@std@@UHeaderLess@@V?$allocator@V?$basic_string@DU?$char_traits@D@std@@V?$allocator@D@2@@std@@@2@$0A@@std@@@std@@KAAAV?$basic_string@DU?$char_traits@D@std@@V?$allocator@D@2@@2@PAU_Node@?$_Tree_nod@V?$_Tset_traits@V?$basic_string@DU?$char_traits@D@std@@V?$allocator@D@2@@std@@UHeaderLess@@V?$allocator@V?$basic_string@DU?$char_traits@D@std@@V?$allocator@D@2@@std@@@2@$0A@@std@@@2@@Z
	?_Nocreate@?$_Iosb@H@std@@2W4_Openmode@12@B
	?_Noreplace@?$_Iosb@H@std@@2W4_Openmode@12@B
	?_Parent@?$_Tree@V?$_Tmap_traits@PAU_iobuf@@PAUCacheEntry@HTTPCache@@U?$less@PAU_iobuf@@@std@@V?$allocator@U?$pair@QAU_iobuf@@PAUCacheEntry@HTTPCache@@@std@@@5@$0A@@std@@@std@@KAAAPAU_Node@?$_Tree_nod@V?$_Tmap_traits@PAU_iobuf@@PAUCacheEntry@HTTPCache@@U?$less@PAU_iobuf@@@std@@V?$allocator@U?$pair@QAU_iobuf@@PAUCacheEntry@HTTPCache@@@std@@@5@$0A@@std@@@2@PAU342@@Z
	?_Parent@?$_Tree@V?$_Tmap_traits@V?$basic_string@DU?$char_traits@D@std@@V?$allocator@D@2@@std@@V12@U?$less@V?$basic_string@DU?$char_traits@D@std@@V?$allocator@D@2@@std@@@2@V?$allocator@U?$pair@$$CBV?$basic_string@DU?$char_traits@D@std@@V?$allocator@D@2@@std@@V12@@std@@@2@$0A@@std@@@std@@KAAAPAU_Node@?$_Tree_nod@V?$_Tmap_traits@V?$basic_string@DU?$char_traits@D@std@@V?$allocator@D@2@@std@@V12@U?$less@V?$basic_string@DU?$char_traits@D@std@@V?$allocator@D@2@@std@@@2@V?$allocator@U?$pair@$$CBV?$basic_string@DU?$char_traits@D@std@@V?$allocator@D@2@@std@@V12@@std@@@2@$0A@@std@@@2@PAU342@@Z
	?_Parent@?$_Tree@V?$_Tmap_traits@V?$basic_string@DU?$char_traits@D@std@@V?$allocator@D@2@@std@@V?$vector@VResource@@V?$allocator@VResource@@@std@@@2@U?$less@V?$basic_string@DU?$char_traits@D@std@@V?$allocator@D@2@@std@@@2@V?$allocator@U?$pair@$$CBV?$basic_string@DU?$char_traits@D@std@@V?$allocator@D@2@@std@@V?$vector@VResource@@V?$allocator@VResource@@@std@@@2@@std@@@2@$0A@@std@@@std@@KAAAPAU_Node@?$_Tree_nod@V?$_Tmap_traits@V?$basic_string@DU?$char_traits@D@std@@V?$allocator@D@2@@std@@V?$vector@VResource@@V?$allocator@VResource@@@std@@@2@U?$less@V?$basic_string@DU?$char_traits@D@std@@V?$allocator@D@2@@std@@@2@V?$allocator@U?$pair@$$CBV?$basic_string@DU?$char_traits@D@std@@V?$allocator@D@2@@std@@V?$vector@VResource@@V?$allocator@VResource@@@std@@@2@@std@@@2@$0A@@std@@@2@PAU342@@Z
	?_Parent@?$_Tree@V?$_Tset_traits@V?$basic_string@DU?$char_traits@D@std@@V?$allocator@D@2@@std@@UHeaderLess@@V?$allocator@V?$basic_string@DU?$char_traits@D@std@@V?$allocator@D@2@@std@@@2@$0A@@std@@@std@@KAAAPAU_Node@?$_Tree_nod@V?$_Tset_traits@V?$basic_string@DU?$char_traits@D@std@@V?$allocator@D@2@@std@@UHeaderLess@@V?$allocator@V?$basic_string@DU?$char_traits@D@std@@V?$allocator@D@2@@std@@@2@$0A@@std@@@2@PAU342@@Z
	?_Right@?$_Tree@V?$_Tmap_traits@PAU_iobuf@@PAUCacheEntry@HTTPCache@@U?$less@PAU_iobuf@@@std@@V?$allocator@U?$pair@QAU_iobuf@@PAUCacheEntry@HTTPCache@@@std@@@5@$0A@@std@@@std@@KAAAPAU_Node@?$_Tree_nod@V?$_Tmap_traits@PAU_iobuf@@PAUCacheEntry@HTTPCache@@U?$less@PAU_iobuf@@@std@@V?$allocator@U?$pair@QAU_iobuf@@PAUCacheEntry@HTTPCache@@@std@@@5@$0A@@std@@@2@PAU342@@Z
	?_Right@?$_Tree@V?$_Tmap_traits@V?$basic_string@DU?$char_traits@D@std@@V?$allocator@D@2@@std@@V12@U?$less@V?$basic_string@DU?$char_traits@D@std@@V?$allocator@D@2@@std@@@2@V?$allocator@U?$pair@$$CBV?$basic_string@DU?$char_traits@D@std@@V?$allocator@D@2@@std@@V12@@std@@@2@$0A@@std@@@std@@KAAAPAU_Node@?$_Tree_nod@V?$_Tmap_traits@V?$basic_string@DU?$char_traits@D@std@@V?$allocator@D@2@@std@@V12@U?$less@V?$basic_string@DU?$char_traits@D@std@@V?$allocator@D@2@@std@@@2@V?$allocator@U?$pair@$$CBV?$basic_string@DU?$char_traits@D@std@@V?$allocator@D@2@@std@@V12@@std@@@2@$0A@@std@@@2@PAU342@@Z
	?_Right@?$_Tree@V?$_Tmap_traits@V?$basic_string@DU?$char_traits@D@std@@V?$allocator@D@2@@std@@V?$vector@VResource@@V?$allocator@VResource@@@std@@@2@U?$less@V?$basic_string@DU?$char_traits@D@std@@V?$allocator@D@2@@std@@@2@V?$allocator@U?$pair@$$CBV?$basic_string@DU?$char_traits@D@std@@V?$allocator@D@2@@std@@V?$vector@VResource@@V?$allocator@VResource@@@std@@@2@@std@@@2@$0A@@std@@@std@@KAAAPAU_Node@?$_Tree_nod@V?$_Tmap_traits@V?$basic_string@DU?$char_traits@D@std@@V?$allocator@D@2@@std@@V?$vector@VResource@@V?$allocator@VResource@@@std@@@2@U?$less@V?$basic_string@DU?$char_traits@D@std@@V?$allocator@D@2@@std@@@2@V?$allocator@U?$pair@$$CBV?$basic_string@DU?$char_traits@D@std@@V?$allocator@D@2@@std@@V?$vector@VResource@@V?$allocator@VResource@@@std@@@2@@std@@@2@$0A@@std@@@2@PAU342@@Z
	?_Right@?$_Tree@V?$_Tset_traits@V?$basic_string@DU?$char_traits@D@std@@V?$allocator@D@2@@std@@UHeaderLess@@V?$allocator@V?$basic_string@DU?$char_traits@D@std@@V?$allocator@D@2@@std@@@2@$0A@@std@@@std@@KAAAPAU_Node@?$_Tree_nod@V?$_Tset_traits@V?$basic_string@DU?$char_traits@D@std@@V?$allocator@D@2@@std@@UHeaderLess@@V?$allocator@V?$basic_string@DU?$char_traits@D@std@@V?$allocator@D@2@@std@@@2@$0A@@std@@@2@PAU342@@Z
	?_Rmost@?$_Tree@V?$_Tmap_traits@PAU_iobuf@@PAUCacheEntry@HTTPCache@@U?$less@PAU_iobuf@@@std@@V?$allocator@U?$pair@QAU_iobuf@@PAUCacheEntry@HTTPCache@@@std@@@5@$0A@@std@@@std@@IBEAAPAU_Node@?$_Tree_nod@V?$_Tmap_traits@PAU_iobuf@@PAUCacheEntry@HTTPCache@@U?$less@PAU_iobuf@@@std@@V?$allocator@U?$pair@QAU_iobuf@@PAUCacheEntry@HTTPCache@@@std@@@5@$0A@@std@@@2@XZ
	?_Rmost@?$_Tree@V?$_Tmap_traits@V?$basic_string@DU?$char_traits@D@std@@V?$allocator@D@2@@std@@V12@U?$less@V?$basic_string@DU?$char_traits@D@std@@V?$allocator@D@2@@std@@@2@V?$allocator@U?$pair@$$CBV?$basic_string@DU?$char_traits@D@std@@V?$allocator@D@2@@std@@V12@@std@@@2@$0A@@std@@@std@@IBEAAPAU_Node@?$_Tree_nod@V?$_Tmap_traits@V?$basic_string@DU?$char_traits@D@std@@V?$allocator@D@2@@std@@V12@U?$less@V?$basic_string@DU?$char_traits@D@std@@V?$allocator@D@2@@std@@@2@V?$allocator@U?$pair@$$CBV?$basic_string@DU?$char_traits@D@std@@V?$allocator@D@2@@std@@V12@@std@@@2@$0A@@std@@@2@XZ
	?_Rmost@?$_Tree@V?$_Tmap_traits@V?$basic_string@DU?$char_traits@D@std@@V?$allocator@D@2@@std@@V?$vector@VResource@@V?$allocator@VResource@@@std@@@2@U?$less@V?$basic_string@DU?$char_traits@D@std@@V?$allocator@D@2@@std@@@2@V?$allocator@U?$pair@$$CBV?$basic_string@DU?$char_traits@D@std@@V?$allocator@D@2@@std@@V?$vector@VResource@@V?$allocator@VResource@@@std@@@2@@std@@@2@$0A@@std@@@std@@IBEAAPAU_Node@?$_Tree_nod@V?$_Tmap_traits@V?$basic_string@DU?$char_traits@D@std@@V?$allocator@D@2@@std@@V?$vector@VResource@@V?$allocator@VResource@@@std@@@2@U?$less@V?$basic_string@DU?$char_traits@D@std@@V?$allocator@D@2@@std@@@2@V?$allocator@U?$pair@$$CBV?$basic_string@DU?$char_traits@D@std@@V?$allocator@D@2@@std@@V?$vector@VResource@@V?$allocator@VResource@@@std@@@2@@std@@@2@$0A@@std@@@2@XZ
	?_Rmost@?$_Tree@V?$_Tset_traits@V?$basic_string@DU?$char_traits@D@std@@V?$allocator@D@2@@std@@UHeaderLess@@V?$allocator@V?$basic_string@DU?$char_traits@D@std@@V?$allocator@D@2@@std@@@2@$0A@@std@@@std@@IBEAAPAU_Node@?$_Tree_nod@V?$_Tset_traits@V?$basic_string@DU?$char_traits@D@std@@V?$allocator@D@2@@std@@UHeaderLess@@V?$allocator@V?$basic_string@DU?$char_traits@D@std@@V?$allocator@D@2@@std@@@2@$0A@@std@@@2@XZ
	?_Root@?$_Tree@V?$_Tmap_traits@PAU_iobuf@@PAUCacheEntry@HTTPCache@@U?$less@PAU_iobuf@@@std@@V?$allocator@U?$pair@QAU_iobuf@@PAUCacheEntry@HTTPCache@@@std@@@5@$0A@@std@@@std@@IBEAAPAU_Node@?$_Tree_nod@V?$_Tmap_traits@PAU_iobuf@@PAUCacheEntry@HTTPCache@@U?$less@PAU_iobuf@@@std@@V?$allocator@U?$pair@QAU_iobuf@@PAUCacheEntry@HTTPCache@@@std@@@5@$0A@@std@@@2@XZ
	?_Root@?$_Tree@V?$_Tmap_traits@V?$basic_string@DU?$char_traits@D@std@@V?$allocator@D@2@@std@@V12@U?$less@V?$basic_string@DU?$char_traits@D@std@@V?$allocator@D@2@@std@@@2@V?$allocator@U?$pair@$$CBV?$basic_string@DU?$char_traits@D@std@@V?$allocator@D@2@@std@@V12@@std@@@2@$0A@@std@@@std@@IBEAAPAU_Node@?$_Tree_nod@V?$_Tmap_traits@V?$basic_string@DU?$char_traits@D@std@@V?$allocator@D@2@@std@@V12@U?$less@V?$basic_string@DU?$char_traits@D@std@@V?$allocator@D@2@@std@@@2@V?$allocator@U?$pair@$$CBV?$basic_string@DU?$char_traits@D@std@@V?$allocator@D@2@@std@@V12@@std@@@2@$0A@@std@@@2@XZ
	?_Root@?$_Tree@V?$_Tmap_traits@V?$basic_string@DU?$char_traits@D@std@@V?$allocator@D@2@@std@@V?$vector@VResource@@V?$allocator@VResource@@@std@@@2@U?$less@V?$basic_string@DU?$char_traits@D@std@@V?$allocator@D@2@@std@@@2@V?$allocator@U?$pair@$$CBV?$basic_string@DU?$char_traits@D@std@@V?$allocator@D@2@@std@@V?$vector@VResource@@V?$allocator@VResource@@@std@@@2@@std@@@2@$0A@@std@@@std@@IBEAAPAU_Node@?$_Tree_nod@V?$_Tmap_traits@V?$basic_string@DU?$char_traits@D@std@@V?$allocator@D@2@@std@@V?$vector@VResource@@V?$allocator@VResource@@@std@@@2@U?$less@V?$basic_string@DU?$char_traits@D@std@@V?$allocator@D@2@@std@@@2@V?$allocator@U?$pair@$$CBV?$basic_string@DU?$char_traits@D@std@@V?$allocator@D@2@@std@@V?$vector@VResource@@V?$allocator@VResource@@@std@@@2@@std@@@2@$0A@@std@@@2@XZ
	?_Root@?$_Tree@V?$_Tset_traits@V?$basic_string@DU?$char_traits@D@std@@V?$allocator@D@2@@std@@UHeaderLess@@V?$allocator@V?$basic_string@DU?$char_traits@D@std@@V?$allocator@D@2@@std@@@2@$0A@@std@@@std@@IBEAAPAU_Node@?$_Tree_nod@V?$_Tset_traits@V?$basic_string@DU?$char_traits@D@std@@V?$allocator@D@2@@std@@UHeaderLess@@V?$allocator@V?$basic_string@DU?$char_traits@D@std@@V?$allocator@D@2@@std@@@2@$0A@@std@@@2@XZ
	?_Rrotate@?$_Tree@V?$_Tmap_traits@PAU_iobuf@@PAUCacheEntry@HTTPCache@@U?$less@PAU_iobuf@@@std@@V?$allocator@U?$pair@QAU_iobuf@@PAUCacheEntry@HTTPCache@@@std@@@5@$0A@@std@@@std@@IAEXPAU_Node@?$_Tree_nod@V?$_Tmap_traits@PAU_iobuf@@PAUCacheEntry@HTTPCache@@U?$less@PAU_iobuf@@@std@@V?$allocator@U?$pair@QAU_iobuf@@PAUCacheEntry@HTTPCache@@@std@@@5@$0A@@std@@@2@@Z
	?_Rrotate@?$_Tree@V?$_Tmap_traits@V?$basic_string@DU?$char_traits@D@std@@V?$allocator@D@2@@std@@V12@U?$less@V?$basic_string@DU?$char_traits@D@std@@V?$allocator@D@2@@std@@@2@V?$allocator@U?$pair@$$CBV?$basic_string@DU?$char_traits@D@std@@V?$allocator@D@2@@std@@V12@@std@@@2@$0A@@std@@@std@@IAEXPAU_Node@?$_Tree_nod@V?$_Tmap_traits@V?$basic_string@DU?$char_traits@D@std@@V?$allocator@D@2@@std@@V12@U?$less@V?$basic_string@DU?$char_traits@D@std@@V?$allocator@D@2@@std@@@2@V?$allocator@U?$pair@$$CBV?$basic_string@DU?$char_traits@D@std@@V?$allocator@D@2@@std@@V12@@std@@@2@$0A@@std@@@2@@Z
	?_Rrotate@?$_Tree@V?$_Tmap_traits@V?$basic_string@DU?$char_traits@D@std@@V?$allocator@D@2@@std@@V?$vector@VResource@@V?$allocator@VResource@@@std@@@2@U?$less@V?$basic_string@DU?$char_traits@D@std@@V?$allocator@D@2@@std@@@2@V?$allocator@U?$pair@$$CBV?$basic_string@DU?$char_traits@D@std@@V?$allocator@D@2@@std@@V?$vector@VResource@@V?$allocator@VResource@@@std@@@2@@std@@@2@$0A@@std@@@std@@IAEXPAU_Node@?$_Tree_nod@V?$_Tmap_traits@V?$basic_string@DU?$char_traits@D@std@@V?$allocator@D@2@@std@@V?$vector@VResource@@V?$allocator@VResource@@@std@@@2@U?$less@V?$basic_string@DU?$char_traits@D@std@@V?$allocator@D@2@@std@@@2@V?$allocator@U?$pair@$$CBV?$basic_string@DU?$char_traits@D@std@@V?$allocator@D@2@@std@@V?$vector@VResource@@V?$allocator@VResource@@@std@@@2@@std@@@2@$0A@@std@@@2@@Z
	?_Rrotate@?$_Tree@V?$_Tset_traits@V?$basic_string@DU?$char_traits@D@std@@V?$allocator@D@2@@std@@UHeaderLess@@V?$allocator@V?$basic_string@DU?$char_traits@D@std@@V?$allocator@D@2@@std@@@2@$0A@@std@@@std@@IAEXPAU_Node@?$_Tree_nod@V?$_Tset_traits@V?$basic_string@DU?$char_traits@D@std@@V?$allocator@D@2@@std@@UHeaderLess@@V?$allocator@V?$basic_string@DU?$char_traits@D@std@@V?$allocator@D@2@@std@@@2@$0A@@std@@@2@@Z
	?_Stdio@?$_Iosb@H@std@@2W4_Fmtflags@12@B
	?_Tidy@?$_Tree@V?$_Tmap_traits@PAU_iobuf@@PAUCacheEntry@HTTPCache@@U?$less@PAU_iobuf@@@std@@V?$allocator@U?$pair@QAU_iobuf@@PAUCacheEntry@HTTPCache@@@std@@@5@$0A@@std@@@std@@IAEXXZ
	?_Tidy@?$_Tree@V?$_Tmap_traits@V?$basic_string@DU?$char_traits@D@std@@V?$allocator@D@2@@std@@V12@U?$less@V?$basic_string@DU?$char_traits@D@std@@V?$allocator@D@2@@std@@@2@V?$allocator@U?$pair@$$CBV?$basic_string@DU?$char_traits@D@std@@V?$allocator@D@2@@std@@V12@@std@@@2@$0A@@std@@@std@@IAEXXZ
	?_Tidy@?$_Tree@V?$_Tmap_traits@V?$basic_string@DU?$char_traits@D@std@@V?$allocator@D@2@@std@@V?$vector@VResource@@V?$allocator@VResource@@@std@@@2@U?$less@V?$basic_string@DU?$char_traits@D@std@@V?$allocator@D@2@@std@@@2@V?$allocator@U?$pair@$$CBV?$basic_string@DU?$char_traits@D@std@@V?$allocator@D@2@@std@@V?$vector@VResource@@V?$allocator@VResource@@@std@@@2@@std@@@2@$0A@@std@@@std@@IAEXXZ
	?_Tidy@?$_Tree@V?$_Tset_traits@V?$basic_string@DU?$char_traits@D@std@@V?$allocator@D@2@@std@@UHeaderLess@@V?$allocator@V?$basic_string@DU?$char_traits@D@std@@V?$allocator@D@2@@std@@@2@$0A@@std@@@std@@IAEXXZ
	?_Tidy@?$deque@PAVAttrTable@@V?$allocator@PAVAttrTable@@@std@@@std@@IAEXXZ
	?_Tidy@?$deque@PAVBaseType@@V?$allocator@PAVBaseType@@@std@@@std@@IAEXXZ
	?_Tidy@?$deque@W4ParseState@DDXParser@@V?$allocator@W4ParseState@DDXParser@@@std@@@std@@IAEXXZ
	?_Tidy@?$vector@PAUCacheEntry@HTTPCache@@V?$allocator@PAUCacheEntry@HTTPCache@@@std@@@std@@IAEXXZ
	?_Tidy@?$vector@U?$pair@V?$basic_string@DU?$char_traits@D@std@@V?$allocator@D@2@@std@@V?$vector@VResource@@V?$allocator@VResource@@@std@@@2@@std@@V?$allocator@U?$pair@V?$basic_string@DU?$char_traits@D@std@@V?$allocator@D@2@@std@@V?$vector@VResource@@V?$allocator@VResource@@@std@@@2@@std@@@2@@std@@IAEXXZ
	?_Tidy@?$vector@V?$basic_string@DU?$char_traits@D@std@@V?$allocator@D@2@@std@@V?$allocator@V?$basic_string@DU?$char_traits@D@std@@V?$allocator@D@2@@std@@@2@@std@@IAEXXZ
	?_Tidy@?$vector@VResource@@V?$allocator@VResource@@@std@@@std@@IAEXXZ
	?_Ubound@?$_Tree@V?$_Tmap_traits@PAU_iobuf@@PAUCacheEntry@HTTPCache@@U?$less@PAU_iobuf@@@std@@V?$allocator@U?$pair@QAU_iobuf@@PAUCacheEntry@HTTPCache@@@std@@@5@$0A@@std@@@std@@IBEPAU_Node@?$_Tree_nod@V?$_Tmap_traits@PAU_iobuf@@PAUCacheEntry@HTTPCache@@U?$less@PAU_iobuf@@@std@@V?$allocator@U?$pair@QAU_iobuf@@PAUCacheEntry@HTTPCache@@@std@@@5@$0A@@std@@@2@ABQAU_iobuf@@@Z
	?_Ufill@?$vector@PAUCacheEntry@HTTPCache@@V?$allocator@PAUCacheEntry@HTTPCache@@@std@@@std@@IAEPAPAUCacheEntry@HTTPCache@@PAPAU34@IABQAU34@@Z
	?_Ufill@?$vector@U?$pair@V?$basic_string@DU?$char_traits@D@std@@V?$allocator@D@2@@std@@V?$vector@VResource@@V?$allocator@VResource@@@std@@@2@@std@@V?$allocator@U?$pair@V?$basic_string@DU?$char_traits@D@std@@V?$allocator@D@2@@std@@V?$vector@VResource@@V?$allocator@VResource@@@std@@@2@@std@@@2@@std@@IAEPAU?$pair@V?$basic_string@DU?$char_traits@D@std@@V?$allocator@D@2@@std@@V?$vector@VResource@@V?$allocator@VResource@@@std@@@2@@2@PAU32@IABU32@@Z
	?_Ufill@?$vector@V?$basic_string@DU?$char_traits@D@std@@V?$allocator@D@2@@std@@V?$allocator@V?$basic_string@DU?$char_traits@D@std@@V?$allocator@D@2@@std@@@2@@std@@IAEPAV?$basic_string@DU?$char_traits@D@std@@V?$allocator@D@2@@2@PAV32@IABV32@@Z
	?_Ufill@?$vector@VResource@@V?$allocator@VResource@@@std@@@std@@IAEPAVResource@@PAV3@IABV3@@Z
	?_Xlen@?$vector@PAUCacheEntry@HTTPCache@@V?$allocator@PAUCacheEntry@HTTPCache@@@std@@@std@@KAXXZ
	?_Xlen@?$vector@U?$pair@V?$basic_string@DU?$char_traits@D@std@@V?$allocator@D@2@@std@@V?$vector@VResource@@V?$allocator@VResource@@@std@@@2@@std@@V?$allocator@U?$pair@V?$basic_string@DU?$char_traits@D@std@@V?$allocator@D@2@@std@@V?$vector@VResource@@V?$allocator@VResource@@@std@@@2@@std@@@2@@std@@KAXXZ
	?_Xlen@?$vector@V?$basic_string@DU?$char_traits@D@std@@V?$allocator@D@2@@std@@V?$allocator@V?$basic_string@DU?$char_traits@D@std@@V?$allocator@D@2@@std@@@2@@std@@KAXXZ
	?_Xlen@?$vector@VResource@@V?$allocator@VResource@@@std@@@std@@KAXXZ
	?_instance@HTTPCache@@0PAV1@A
	?_instance@RCReader@@0PAV1@A
	?add_entry_to_cache_table@HTTPCache@@AAEXPAUCacheEntry@1@@Z
	?add_regexp_resource@AISResources@@UAEXABV?$basic_string@DU?$char_traits@D@std@@V?$allocator@D@2@@std@@ABV?$vector@VResource@@V?$allocator@VResource@@@std@@@3@@Z
	?add_regexp_resource@AISResources@@UAEXABV?$basic_string@DU?$char_traits@D@std@@V?$allocator@D@2@@std@@ABVResource@@@Z
	?add_url_resource@AISResources@@UAEXABV?$basic_string@DU?$char_traits@D@std@@V?$allocator@D@2@@std@@ABV?$vector@VResource@@V?$allocator@VResource@@@std@@@3@@Z
	?add_url_resource@AISResources@@UAEXABV?$basic_string@DU?$char_traits@D@std@@V?$allocator@D@2@@std@@ABVResource@@@Z
	?adjustfield@?$_Iosb@H@std@@2W4_Fmtflags@12@B
	?aisEndDocument@AISDatabaseParser@@SAXPAUAISParserState@1@@Z
	?aisEndElement@AISDatabaseParser@@SAXPAUAISParserState@1@PBD@Z
	?aisError@AISDatabaseParser@@SAXPAUAISParserState@1@PBDZZ
	?aisFatalError@AISDatabaseParser@@SAXPAUAISParserState@1@PBDZZ
	?aisGetEntity@AISDatabaseParser@@SAPAU_xmlEntity@@PAUAISParserState@1@PBE@Z
	?aisStartDocument@AISDatabaseParser@@SAXPAUAISParserState@1@@Z
	?aisStartElement@AISDatabaseParser@@SAXPAUAISParserState@1@PBDPAPBD@Z
	?aisWarning@AISDatabaseParser@@SAXPAUAISParserState@1@PBDZZ
	?all@?$_Locbase@H@std@@2HB
	?allocate@?$allocator@PAUCacheEntry@HTTPCache@@@std@@QAEPAPAUCacheEntry@HTTPCache@@I@Z
	?allocate@?$allocator@U?$pair@V?$basic_string@DU?$char_traits@D@std@@V?$allocator@D@2@@std@@V?$vector@VResource@@V?$allocator@VResource@@@std@@@2@@std@@@std@@QAEPAU?$pair@V?$basic_string@DU?$char_traits@D@std@@V?$allocator@D@2@@std@@V?$vector@VResource@@V?$allocator@VResource@@@std@@@2@@2@I@Z
	?allocate@?$allocator@U_Node@?$_Tree_nod@V?$_Tmap_traits@PAU_iobuf@@PAUCacheEntry@HTTPCache@@U?$less@PAU_iobuf@@@std@@V?$allocator@U?$pair@QAU_iobuf@@PAUCacheEntry@HTTPCache@@@std@@@5@$0A@@std@@@std@@@std@@QAEPAU_Node@?$_Tree_nod@V?$_Tmap_traits@PAU_iobuf@@PAUCacheEntry@HTTPCache@@U?$less@PAU_iobuf@@@std@@V?$allocator@U?$pair@QAU_iobuf@@PAUCacheEntry@HTTPCache@@@std@@@5@$0A@@std@@@2@I@Z
	?allocate@?$allocator@U_Node@?$_Tree_nod@V?$_Tmap_traits@V?$basic_string@DU?$char_traits@D@std@@V?$allocator@D@2@@std@@V12@U?$less@V?$basic_string@DU?$char_traits@D@std@@V?$allocator@D@2@@std@@@2@V?$allocator@U?$pair@$$CBV?$basic_string@DU?$char_traits@D@std@@V?$allocator@D@2@@std@@V12@@std@@@2@$0A@@std@@@std@@@std@@QAEPAU_Node@?$_Tree_nod@V?$_Tmap_traits@V?$basic_string@DU?$char_traits@D@std@@V?$allocator@D@2@@std@@V12@U?$less@V?$basic_string@DU?$char_traits@D@std@@V?$allocator@D@2@@std@@@2@V?$allocator@U?$pair@$$CBV?$basic_string@DU?$char_traits@D@std@@V?$allocator@D@2@@std@@V12@@std@@@2@$0A@@std@@@2@I@Z
	?allocate@?$allocator@U_Node@?$_Tree_nod@V?$_Tmap_traits@V?$basic_string@DU?$char_traits@D@std@@V?$allocator@D@2@@std@@V?$vector@VResource@@V?$allocator@VResource@@@std@@@2@U?$less@V?$basic_string@DU?$char_traits@D@std@@V?$allocator@D@2@@std@@@2@V?$allocator@U?$pair@$$CBV?$basic_string@DU?$char_traits@D@std@@V?$allocator@D@2@@std@@V?$vector@VResource@@V?$allocator@VResource@@@std@@@2@@std@@@2@$0A@@std@@@std@@@std@@QAEPAU_Node@?$_Tree_nod@V?$_Tmap_traits@V?$basic_string@DU?$char_traits@D@std@@V?$allocator@D@2@@std@@V?$vector@VResource@@V?$allocator@VResource@@@std@@@2@U?$less@V?$basic_string@DU?$char_traits@D@std@@V?$allocator@D@2@@std@@@2@V?$allocator@U?$pair@$$CBV?$basic_string@DU?$char_traits@D@std@@V?$allocator@D@2@@std@@V?$vector@VResource@@V?$allocator@VResource@@@std@@@2@@std@@@2@$0A@@std@@@2@I@Z
	?allocate@?$allocator@U_Node@?$_Tree_nod@V?$_Tset_traits@V?$basic_string@DU?$char_traits@D@std@@V?$allocator@D@2@@std@@UHeaderLess@@V?$allocator@V?$basic_string@DU?$char_traits@D@std@@V?$allocator@D@2@@std@@@2@$0A@@std@@@std@@@std@@QAEPAU_Node@?$_Tree_nod@V?$_Tset_traits@V?$basic_string@DU?$char_traits@D@std@@V?$allocator@D@2@@std@@UHeaderLess@@V?$allocator@V?$basic_string@DU?$char_traits@D@std@@V?$allocator@D@2@@std@@@2@$0A@@std@@@2@I@Z
	?allocate@?$allocator@V?$basic_string@DU?$char_traits@D@std@@V?$allocator@D@2@@std@@@std@@QAEPAV?$basic_string@DU?$char_traits@D@std@@V?$allocator@D@2@@2@I@Z
	?allocate@?$allocator@VResource@@@std@@QAEPAVResource@@I@Z
	?app@?$_Iosb@H@std@@2W4_Openmode@12@B
	?ate@?$_Iosb@H@std@@2W4_Openmode@12@B
	?badbit@?$_Iosb@H@std@@2W4_Iostate@12@B
	?base@?$reverse_iterator@Viterator@?$_Tree@V?$_Tset_traits@V?$basic_string@DU?$char_traits@D@std@@V?$allocator@D@2@@std@@UHeaderLess@@V?$allocator@V?$basic_string@DU?$char_traits@D@std@@V?$allocator@D@2@@std@@@2@$0A@@std@@@std@@@std@@QBE?AViterator@?$_Tree@V?$_Tset_traits@V?$basic_string@DU?$char_traits@D@std@@V?$allocator@D@2@@std@@UHeaderLess@@V?$allocator@V?$basic_string@DU?$char_traits@D@std@@V?$allocator@D@2@@std@@@2@$0A@@std@@@2@XZ
	?basefield@?$_Iosb@H@std@@2W4_Fmtflags@12@B
	?beg@?$_Iosb@H@std@@2W4_Seekdir@12@B
	?begin@?$_Tree@V?$_Tmap_traits@PAU_iobuf@@PAUCacheEntry@HTTPCache@@U?$less@PAU_iobuf@@@std@@V?$allocator@U?$pair@QAU_iobuf@@PAUCacheEntry@HTTPCache@@@std@@@5@$0A@@std@@@std@@QAE?AViterator@12@XZ
	?begin@?$_Tree@V?$_Tmap_traits@V?$basic_string@DU?$char_traits@D@std@@V?$allocator@D@2@@std@@V12@U?$less@V?$basic_string@DU?$char_traits@D@std@@V?$allocator@D@2@@std@@@2@V?$allocator@U?$pair@$$CBV?$basic_string@DU?$char_traits@D@std@@V?$allocator@D@2@@std@@V12@@std@@@2@$0A@@std@@@std@@QAE?AViterator@12@XZ
	?begin@?$_Tree@V?$_Tmap_traits@V?$basic_string@DU?$char_traits@D@std@@V?$allocator@D@2@@std@@V?$vector@VResource@@V?$allocator@VResource@@@std@@@2@U?$less@V?$basic_string@DU?$char_traits@D@std@@V?$allocator@D@2@@std@@@2@V?$allocator@U?$pair@$$CBV?$basic_string@DU?$char_traits@D@std@@V?$allocator@D@2@@std@@V?$vector@VResource@@V?$allocator@VResource@@@std@@@2@@std@@@2@$0A@@std@@@std@@QAE?AViterator@12@XZ
	?begin@?$_Tree@V?$_Tmap_traits@V?$basic_string@DU?$char_traits@D@std@@V?$allocator@D@2@@std@@V?$vector@VResource@@V?$allocator@VResource@@@std@@@2@U?$less@V?$basic_string@DU?$char_traits@D@std@@V?$allocator@D@2@@std@@@2@V?$allocator@U?$pair@$$CBV?$basic_string@DU?$char_traits@D@std@@V?$allocator@D@2@@std@@V?$vector@VResource@@V?$allocator@VResource@@@std@@@2@@std@@@2@$0A@@std@@@std@@QBE?AVconst_iterator@12@XZ
	?begin@?$_Tree@V?$_Tset_traits@V?$basic_string@DU?$char_traits@D@std@@V?$allocator@D@2@@std@@UHeaderLess@@V?$allocator@V?$basic_string@DU?$char_traits@D@std@@V?$allocator@D@2@@std@@@2@$0A@@std@@@std@@QAE?AViterator@12@XZ
	?begin@?$vector@PAUCacheEntry@HTTPCache@@V?$allocator@PAUCacheEntry@HTTPCache@@@std@@@std@@QAE?AV?$_Vector_iterator@PAUCacheEntry@HTTPCache@@V?$allocator@PAUCacheEntry@HTTPCache@@@std@@@2@XZ
	?begin@?$vector@U?$pair@V?$basic_string@DU?$char_traits@D@std@@V?$allocator@D@2@@std@@V?$vector@VResource@@V?$allocator@VResource@@@std@@@2@@std@@V?$allocator@U?$pair@V?$basic_string@DU?$char_traits@D@std@@V?$allocator@D@2@@std@@V?$vector@VResource@@V?$allocator@VResource@@@std@@@2@@std@@@2@@std@@QAE?AV?$_Vector_iterator@U?$pair@V?$basic_string@DU?$char_traits@D@std@@V?$allocator@D@2@@std@@V?$vector@VResource@@V?$allocator@VResource@@@std@@@2@@std@@V?$allocator@U?$pair@V?$basic_string@DU?$char_traits@D@std@@V?$allocator@D@2@@std@@V?$vector@VResource@@V?$allocator@VResource@@@std@@@2@@std@@@2@@2@XZ
	?begin@?$vector@U?$pair@V?$basic_string@DU?$char_traits@D@std@@V?$allocator@D@2@@std@@V?$vector@VResource@@V?$allocator@VResource@@@std@@@2@@std@@V?$allocator@U?$pair@V?$basic_string@DU?$char_traits@D@std@@V?$allocator@D@2@@std@@V?$vector@VResource@@V?$allocator@VResource@@@std@@@2@@std@@@2@@std@@QBE?AV?$_Vector_const_iterator@U?$pair@V?$basic_string@DU?$char_traits@D@std@@V?$allocator@D@2@@std@@V?$vector@VResource@@V?$allocator@VResource@@@std@@@2@@std@@V?$allocator@U?$pair@V?$basic_string@DU?$char_traits@D@std@@V?$allocator@D@2@@std@@V?$vector@VResource@@V?$allocator@VResource@@@std@@@2@@std@@@2@@2@XZ
	?begin@?$vector@V?$basic_string@DU?$char_traits@D@std@@V?$allocator@D@2@@std@@V?$allocator@V?$basic_string@DU?$char_traits@D@std@@V?$allocator@D@2@@std@@@2@@std@@QAE?AV?$_Vector_iterator@V?$basic_string@DU?$char_traits@D@std@@V?$allocator@D@2@@std@@V?$allocator@V?$basic_string@DU?$char_traits@D@std@@V?$allocator@D@2@@std@@@2@@2@XZ
	?begin@?$vector@V?$basic_string@DU?$char_traits@D@std@@V?$allocator@D@2@@std@@V?$allocator@V?$basic_string@DU?$char_traits@D@std@@V?$allocator@D@2@@std@@@2@@std@@QBE?AV?$_Vector_const_iterator@V?$basic_string@DU?$char_traits@D@std@@V?$allocator@D@2@@std@@V?$allocator@V?$basic_string@DU?$char_traits@D@std@@V?$allocator@D@2@@std@@@2@@2@XZ
	?begin@?$vector@VResource@@V?$allocator@VResource@@@std@@@std@@QAE?AV?$_Vector_iterator@VResource@@V?$allocator@VResource@@@std@@@2@XZ
	?begin@?$vector@VResource@@V?$allocator@VResource@@@std@@@std@@QBE?AV?$_Vector_const_iterator@VResource@@V?$allocator@VResource@@@std@@@2@XZ
	?binary@?$_Iosb@H@std@@2W4_Openmode@12@B
	?boolalpha@?$_Iosb@H@std@@2W4_Fmtflags@12@B
	?cache_index_delete@HTTPCache@@AAE_NXZ
	?cache_index_parse_line@HTTPCache@@AAEPAUCacheEntry@1@PBD@Z
	?cache_index_read@HTTPCache@@AAE_NXZ
	?cache_index_write@HTTPCache@@AAEXXZ
	?cache_response@HTTPCache@@QAE_NABV?$basic_string@DU?$char_traits@D@std@@V?$allocator@D@2@@std@@_JABV?$vector@V?$basic_string@DU?$char_traits@D@std@@V?$allocator@D@2@@std@@V?$allocator@V?$basic_string@DU?$char_traits@D@std@@V?$allocator@D@2@@std@@@2@@3@PBU_iobuf@@@Z
	?caching_fetch_url@HTTPConnect@@AAEPAVHTTPResponse@@ABV?$basic_string@DU?$char_traits@D@std@@V?$allocator@D@2@@std@@@Z
	?calculate_time@HTTPCache@@AAEXPAUCacheEntry@1@_J@Z
	?capacity@?$vector@PAUCacheEntry@HTTPCache@@V?$allocator@PAUCacheEntry@HTTPCache@@@std@@@std@@QBEIXZ
	?capacity@?$vector@U?$pair@V?$basic_string@DU?$char_traits@D@std@@V?$allocator@D@2@@std@@V?$vector@VResource@@V?$allocator@VResource@@@std@@@2@@std@@V?$allocator@U?$pair@V?$basic_string@DU?$char_traits@D@std@@V?$allocator@D@2@@std@@V?$vector@VResource@@V?$allocator@VResource@@@std@@@2@@std@@@2@@std@@QBEIXZ
	?capacity@?$vector@V?$basic_string@DU?$char_traits@D@std@@V?$allocator@D@2@@std@@V?$allocator@V?$basic_string@DU?$char_traits@D@std@@V?$allocator@D@2@@std@@@2@@std@@QBEIXZ
	?capacity@?$vector@VResource@@V?$allocator@VResource@@@std@@@std@@QBEIXZ
	?check_env_var@RCReader@@AAE?AV?$basic_string@DU?$char_traits@D@std@@V?$allocator@D@2@@std@@ABV23@@Z
	?check_string@RCReader@@AAE?AV?$basic_string@DU?$char_traits@D@std@@V?$allocator@D@2@@std@@V23@@Z
	?clear@?$_Tree@V?$_Tmap_traits@PAU_iobuf@@PAUCacheEntry@HTTPCache@@U?$less@PAU_iobuf@@@std@@V?$allocator@U?$pair@QAU_iobuf@@PAUCacheEntry@HTTPCache@@@std@@@5@$0A@@std@@@std@@QAEXXZ
	?clear@?$_Tree@V?$_Tmap_traits@V?$basic_string@DU?$char_traits@D@std@@V?$allocator@D@2@@std@@V12@U?$less@V?$basic_string@DU?$char_traits@D@std@@V?$allocator@D@2@@std@@@2@V?$allocator@U?$pair@$$CBV?$basic_string@DU?$char_traits@D@std@@V?$allocator@D@2@@std@@V12@@std@@@2@$0A@@std@@@std@@QAEXXZ
	?clear@?$_Tree@V?$_Tmap_traits@V?$basic_string@DU?$char_traits@D@std@@V?$allocator@D@2@@std@@V?$vector@VResource@@V?$allocator@VResource@@@std@@@2@U?$less@V?$basic_string@DU?$char_traits@D@std@@V?$allocator@D@2@@std@@@2@V?$allocator@U?$pair@$$CBV?$basic_string@DU?$char_traits@D@std@@V?$allocator@D@2@@std@@V?$vector@VResource@@V?$allocator@VResource@@@std@@@2@@std@@@2@$0A@@std@@@std@@QAEXXZ
	?clear@?$_Tree@V?$_Tset_traits@V?$basic_string@DU?$char_traits@D@std@@V?$allocator@D@2@@std@@UHeaderLess@@V?$allocator@V?$basic_string@DU?$char_traits@D@std@@V?$allocator@D@2@@std@@@2@$0A@@std@@@std@@QAEXXZ
	?clear@?$vector@V?$basic_string@DU?$char_traits@D@std@@V?$allocator@D@2@@std@@V?$allocator@V?$basic_string@DU?$char_traits@D@std@@V?$allocator@D@2@@std@@@2@@std@@QAEXXZ
	?clear@?$vector@VResource@@V?$allocator@VResource@@@std@@@std@@QAEXXZ
	?close_temp@@YAXPAU_iobuf@@ABV?$basic_string@DU?$char_traits@D@std@@V?$allocator@D@2@@std@@@Z
	?collate@?$_Locbase@H@std@@2HB
	?construct@?$allocator@PAU_Node@?$_Tree_nod@V?$_Tmap_traits@PAU_iobuf@@PAUCacheEntry@HTTPCache@@U?$less@PAU_iobuf@@@std@@V?$allocator@U?$pair@QAU_iobuf@@PAUCacheEntry@HTTPCache@@@std@@@5@$0A@@std@@@std@@@std@@QAEXPAPAU_Node@?$_Tree_nod@V?$_Tmap_traits@PAU_iobuf@@PAUCacheEntry@HTTPCache@@U?$less@PAU_iobuf@@@std@@V?$allocator@U?$pair@QAU_iobuf@@PAUCacheEntry@HTTPCache@@@std@@@5@$0A@@std@@@2@ABQAU342@@Z
	?construct@?$allocator@PAU_Node@?$_Tree_nod@V?$_Tmap_traits@V?$basic_string@DU?$char_traits@D@std@@V?$allocator@D@2@@std@@V12@U?$less@V?$basic_string@DU?$char_traits@D@std@@V?$allocator@D@2@@std@@@2@V?$allocator@U?$pair@$$CBV?$basic_string@DU?$char_traits@D@std@@V?$allocator@D@2@@std@@V12@@std@@@2@$0A@@std@@@std@@@std@@QAEXPAPAU_Node@?$_Tree_nod@V?$_Tmap_traits@V?$basic_string@DU?$char_traits@D@std@@V?$allocator@D@2@@std@@V12@U?$less@V?$basic_string@DU?$char_traits@D@std@@V?$allocator@D@2@@std@@@2@V?$allocator@U?$pair@$$CBV?$basic_string@DU?$char_traits@D@std@@V?$allocator@D@2@@std@@V12@@std@@@2@$0A@@std@@@2@ABQAU342@@Z
	?construct@?$allocator@PAU_Node@?$_Tree_nod@V?$_Tmap_traits@V?$basic_string@DU?$char_traits@D@std@@V?$allocator@D@2@@std@@V?$vector@VResource@@V?$allocator@VResource@@@std@@@2@U?$less@V?$basic_string@DU?$char_traits@D@std@@V?$allocator@D@2@@std@@@2@V?$allocator@U?$pair@$$CBV?$basic_string@DU?$char_traits@D@std@@V?$allocator@D@2@@std@@V?$vector@VResource@@V?$allocator@VResource@@@std@@@2@@std@@@2@$0A@@std@@@std@@@std@@QAEXPAPAU_Node@?$_Tree_nod@V?$_Tmap_traits@V?$basic_string@DU?$char_traits@D@std@@V?$allocator@D@2@@std@@V?$vector@VResource@@V?$allocator@VResource@@@std@@@2@U?$less@V?$basic_string@DU?$char_traits@D@std@@V?$allocator@D@2@@std@@@2@V?$allocator@U?$pair@$$CBV?$basic_string@DU?$char_traits@D@std@@V?$allocator@D@2@@std@@V?$vector@VResource@@V?$allocator@VResource@@@std@@@2@@std@@@2@$0A@@std@@@2@ABQAU342@@Z
	?construct@?$allocator@PAU_Node@?$_Tree_nod@V?$_Tset_traits@V?$basic_string@DU?$char_traits@D@std@@V?$allocator@D@2@@std@@UHeaderLess@@V?$allocator@V?$basic_string@DU?$char_traits@D@std@@V?$allocator@D@2@@std@@@2@$0A@@std@@@std@@@std@@QAEXPAPAU_Node@?$_Tree_nod@V?$_Tset_traits@V?$basic_string@DU?$char_traits@D@std@@V?$allocator@D@2@@std@@UHeaderLess@@V?$allocator@V?$basic_string@DU?$char_traits@D@std@@V?$allocator@D@2@@std@@@2@$0A@@std@@@2@ABQAU342@@Z
	?construct@?$allocator@U?$pair@V?$basic_string@DU?$char_traits@D@std@@V?$allocator@D@2@@std@@V?$vector@VResource@@V?$allocator@VResource@@@std@@@2@@std@@@std@@QAEXPAU?$pair@V?$basic_string@DU?$char_traits@D@std@@V?$allocator@D@2@@std@@V?$vector@VResource@@V?$allocator@VResource@@@std@@@2@@2@ABU32@@Z
	?construct@?$allocator@V?$basic_string@DU?$char_traits@D@std@@V?$allocator@D@2@@std@@@std@@QAEXPAV?$basic_string@DU?$char_traits@D@std@@V?$allocator@D@2@@2@ABV32@@Z
	?construct@?$allocator@VResource@@@std@@QAEXPAVResource@@ABV3@@Z
	?create_cache_root@HTTPCache@@AAEXABV?$basic_string@DU?$char_traits@D@std@@V?$allocator@D@2@@std@@@Z
	?create_hash_directory@HTTPCache@@AAE?AV?$basic_string@DU?$char_traits@D@std@@V?$allocator@D@2@@std@@H@Z
	?create_location@HTTPCache@@AAEXPAUCacheEntry@1@@Z
	?ctype@?$_Locbase@H@std@@2HB
	?cur@?$_Iosb@H@std@@2W4_Seekdir@12@B
	?date_time_str@@YA?AV?$basic_string@DU?$char_traits@D@std@@V?$allocator@D@2@@std@@PA_J_N@Z
	?deallocate@?$allocator@PAPAVAttrTable@@@std@@QAEXPAPAPAVAttrTable@@I@Z
	?deallocate@?$allocator@PAPAVBaseType@@@std@@QAEXPAPAPAVBaseType@@I@Z
	?deallocate@?$allocator@PAUCacheEntry@HTTPCache@@@std@@QAEXPAPAUCacheEntry@HTTPCache@@I@Z
	?deallocate@?$allocator@PAVAttrTable@@@std@@QAEXPAPAVAttrTable@@I@Z
	?deallocate@?$allocator@PAVBaseType@@@std@@QAEXPAPAVBaseType@@I@Z
	?deallocate@?$allocator@PAW4ParseState@DDXParser@@@std@@QAEXPAPAW4ParseState@DDXParser@@I@Z
	?deallocate@?$allocator@U?$pair@V?$basic_string@DU?$char_traits@D@std@@V?$allocator@D@2@@std@@V?$vector@VResource@@V?$allocator@VResource@@@std@@@2@@std@@@std@@QAEXPAU?$pair@V?$basic_string@DU?$char_traits@D@std@@V?$allocator@D@2@@std@@V?$vector@VResource@@V?$allocator@VResource@@@std@@@2@@2@I@Z
	?deallocate@?$allocator@U_Node@?$_Tree_nod@V?$_Tmap_traits@PAU_iobuf@@PAUCacheEntry@HTTPCache@@U?$less@PAU_iobuf@@@std@@V?$allocator@U?$pair@QAU_iobuf@@PAUCacheEntry@HTTPCache@@@std@@@5@$0A@@std@@@std@@@std@@QAEXPAU_Node@?$_Tree_nod@V?$_Tmap_traits@PAU_iobuf@@PAUCacheEntry@HTTPCache@@U?$less@PAU_iobuf@@@std@@V?$allocator@U?$pair@QAU_iobuf@@PAUCacheEntry@HTTPCache@@@std@@@5@$0A@@std@@@2@I@Z
	?deallocate@?$allocator@U_Node@?$_Tree_nod@V?$_Tmap_traits@V?$basic_string@DU?$char_traits@D@std@@V?$allocator@D@2@@std@@V12@U?$less@V?$basic_string@DU?$char_traits@D@std@@V?$allocator@D@2@@std@@@2@V?$allocator@U?$pair@$$CBV?$basic_string@DU?$char_traits@D@std@@V?$allocator@D@2@@std@@V12@@std@@@2@$0A@@std@@@std@@@std@@QAEXPAU_Node@?$_Tree_nod@V?$_Tmap_traits@V?$basic_string@DU?$char_traits@D@std@@V?$allocator@D@2@@std@@V12@U?$less@V?$basic_string@DU?$char_traits@D@std@@V?$allocator@D@2@@std@@@2@V?$allocator@U?$pair@$$CBV?$basic_string@DU?$char_traits@D@std@@V?$allocator@D@2@@std@@V12@@std@@@2@$0A@@std@@@2@I@Z
	?deallocate@?$allocator@U_Node@?$_Tree_nod@V?$_Tmap_traits@V?$basic_string@DU?$char_traits@D@std@@V?$allocator@D@2@@std@@V?$vector@VResource@@V?$allocator@VResource@@@std@@@2@U?$less@V?$basic_string@DU?$char_traits@D@std@@V?$allocator@D@2@@std@@@2@V?$allocator@U?$pair@$$CBV?$basic_string@DU?$char_traits@D@std@@V?$allocator@D@2@@std@@V?$vector@VResource@@V?$allocator@VResource@@@std@@@2@@std@@@2@$0A@@std@@@std@@@std@@QAEXPAU_Node@?$_Tree_nod@V?$_Tmap_traits@V?$basic_string@DU?$char_traits@D@std@@V?$allocator@D@2@@std@@V?$vector@VResource@@V?$allocator@VResource@@@std@@@2@U?$less@V?$basic_string@DU?$char_traits@D@std@@V?$allocator@D@2@@std@@@2@V?$allocator@U?$pair@$$CBV?$basic_string@DU?$char_traits@D@std@@V?$allocator@D@2@@std@@V?$vector@VResource@@V?$allocator@VResource@@@std@@@2@@std@@@2@$0A@@std@@@2@I@Z
	?deallocate@?$allocator@U_Node@?$_Tree_nod@V?$_Tset_traits@V?$basic_string@DU?$char_traits@D@std@@V?$allocator@D@2@@std@@UHeaderLess@@V?$allocator@V?$basic_string@DU?$char_traits@D@std@@V?$allocator@D@2@@std@@@2@$0A@@std@@@std@@@std@@QAEXPAU_Node@?$_Tree_nod@V?$_Tset_traits@V?$basic_string@DU?$char_traits@D@std@@V?$allocator@D@2@@std@@UHeaderLess@@V?$allocator@V?$basic_string@DU?$char_traits@D@std@@V?$allocator@D@2@@std@@@2@$0A@@std@@@2@I@Z
	?deallocate@?$allocator@V?$basic_string@DU?$char_traits@D@std@@V?$allocator@D@2@@std@@@std@@QAEXPAV?$basic_string@DU?$char_traits@D@std@@V?$allocator@D@2@@2@I@Z
	?deallocate@?$allocator@VResource@@@std@@QAEXPAVResource@@I@Z
	?deallocate@?$allocator@W4ParseState@DDXParser@@@std@@QAEXPAW4ParseState@DDXParser@@I@Z
	?dec@?$_Iosb@H@std@@2W4_Fmtflags@12@B
	?delete_instance@HTTPCache@@CAXXZ
	?delete_instance@RCReader@@CAXXZ
	?destroy@?$allocator@PAPAVAttrTable@@@std@@QAEXPAPAPAVAttrTable@@@Z
	?destroy@?$allocator@PAPAVBaseType@@@std@@QAEXPAPAPAVBaseType@@@Z
	?destroy@?$allocator@PAU_Node@?$_Tree_nod@V?$_Tmap_traits@PAU_iobuf@@PAUCacheEntry@HTTPCache@@U?$less@PAU_iobuf@@@std@@V?$allocator@U?$pair@QAU_iobuf@@PAUCacheEntry@HTTPCache@@@std@@@5@$0A@@std@@@std@@@std@@QAEXPAPAU_Node@?$_Tree_nod@V?$_Tmap_traits@PAU_iobuf@@PAUCacheEntry@HTTPCache@@U?$less@PAU_iobuf@@@std@@V?$allocator@U?$pair@QAU_iobuf@@PAUCacheEntry@HTTPCache@@@std@@@5@$0A@@std@@@2@@Z
	?destroy@?$allocator@PAU_Node@?$_Tree_nod@V?$_Tmap_traits@V?$basic_string@DU?$char_traits@D@std@@V?$allocator@D@2@@std@@V12@U?$less@V?$basic_string@DU?$char_traits@D@std@@V?$allocator@D@2@@std@@@2@V?$allocator@U?$pair@$$CBV?$basic_string@DU?$char_traits@D@std@@V?$allocator@D@2@@std@@V12@@std@@@2@$0A@@std@@@std@@@std@@QAEXPAPAU_Node@?$_Tree_nod@V?$_Tmap_traits@V?$basic_string@DU?$char_traits@D@std@@V?$allocator@D@2@@std@@V12@U?$less@V?$basic_string@DU?$char_traits@D@std@@V?$allocator@D@2@@std@@@2@V?$allocator@U?$pair@$$CBV?$basic_string@DU?$char_traits@D@std@@V?$allocator@D@2@@std@@V12@@std@@@2@$0A@@std@@@2@@Z
	?destroy@?$allocator@PAU_Node@?$_Tree_nod@V?$_Tmap_traits@V?$basic_string@DU?$char_traits@D@std@@V?$allocator@D@2@@std@@V?$vector@VResource@@V?$allocator@VResource@@@std@@@2@U?$less@V?$basic_string@DU?$char_traits@D@std@@V?$allocator@D@2@@std@@@2@V?$allocator@U?$pair@$$CBV?$basic_string@DU?$char_traits@D@std@@V?$allocator@D@2@@std@@V?$vector@VResource@@V?$allocator@VResource@@@std@@@2@@std@@@2@$0A@@std@@@std@@@std@@QAEXPAPAU_Node@?$_Tree_nod@V?$_Tmap_traits@V?$basic_string@DU?$char_traits@D@std@@V?$allocator@D@2@@std@@V?$vector@VResource@@V?$allocator@VResource@@@std@@@2@U?$less@V?$basic_string@DU?$char_traits@D@std@@V?$allocator@D@2@@std@@@2@V?$allocator@U?$pair@$$CBV?$basic_string@DU?$char_traits@D@std@@V?$allocator@D@2@@std@@V?$vector@VResource@@V?$allocator@VResource@@@std@@@2@@std@@@2@$0A@@std@@@2@@Z
	?destroy@?$allocator@PAU_Node@?$_Tree_nod@V?$_Tset_traits@V?$basic_string@DU?$char_traits@D@std@@V?$allocator@D@2@@std@@UHeaderLess@@V?$allocator@V?$basic_string@DU?$char_traits@D@std@@V?$allocator@D@2@@std@@@2@$0A@@std@@@std@@@std@@QAEXPAPAU_Node@?$_Tree_nod@V?$_Tset_traits@V?$basic_string@DU?$char_traits@D@std@@V?$allocator@D@2@@std@@UHeaderLess@@V?$allocator@V?$basic_string@DU?$char_traits@D@std@@V?$allocator@D@2@@std@@@2@$0A@@std@@@2@@Z
	?destroy@?$allocator@PAVAttrTable@@@std@@QAEXPAPAVAttrTable@@@Z
	?destroy@?$allocator@PAVBaseType@@@std@@QAEXPAPAVBaseType@@@Z
	?destroy@?$allocator@PAW4ParseState@DDXParser@@@std@@QAEXPAPAW4ParseState@DDXParser@@@Z
	?destroy@?$allocator@U?$pair@V?$basic_string@DU?$char_traits@D@std@@V?$allocator@D@2@@std@@V?$vector@VResource@@V?$allocator@VResource@@@std@@@2@@std@@@std@@QAEXPAU?$pair@V?$basic_string@DU?$char_traits@D@std@@V?$allocator@D@2@@std@@V?$vector@VResource@@V?$allocator@VResource@@@std@@@2@@2@@Z
	?destroy@?$allocator@U_Node@?$_Tree_nod@V?$_Tmap_traits@PAU_iobuf@@PAUCacheEntry@HTTPCache@@U?$less@PAU_iobuf@@@std@@V?$allocator@U?$pair@QAU_iobuf@@PAUCacheEntry@HTTPCache@@@std@@@5@$0A@@std@@@std@@@std@@QAEXPAU_Node@?$_Tree_nod@V?$_Tmap_traits@PAU_iobuf@@PAUCacheEntry@HTTPCache@@U?$less@PAU_iobuf@@@std@@V?$allocator@U?$pair@QAU_iobuf@@PAUCacheEntry@HTTPCache@@@std@@@5@$0A@@std@@@2@@Z
	?destroy@?$allocator@U_Node@?$_Tree_nod@V?$_Tmap_traits@V?$basic_string@DU?$char_traits@D@std@@V?$allocator@D@2@@std@@V12@U?$less@V?$basic_string@DU?$char_traits@D@std@@V?$allocator@D@2@@std@@@2@V?$allocator@U?$pair@$$CBV?$basic_string@DU?$char_traits@D@std@@V?$allocator@D@2@@std@@V12@@std@@@2@$0A@@std@@@std@@@std@@QAEXPAU_Node@?$_Tree_nod@V?$_Tmap_traits@V?$basic_string@DU?$char_traits@D@std@@V?$allocator@D@2@@std@@V12@U?$less@V?$basic_string@DU?$char_traits@D@std@@V?$allocator@D@2@@std@@@2@V?$allocator@U?$pair@$$CBV?$basic_string@DU?$char_traits@D@std@@V?$allocator@D@2@@std@@V12@@std@@@2@$0A@@std@@@2@@Z
	?destroy@?$allocator@U_Node@?$_Tree_nod@V?$_Tmap_traits@V?$basic_string@DU?$char_traits@D@std@@V?$allocator@D@2@@std@@V?$vector@VResource@@V?$allocator@VResource@@@std@@@2@U?$less@V?$basic_string@DU?$char_traits@D@std@@V?$allocator@D@2@@std@@@2@V?$allocator@U?$pair@$$CBV?$basic_string@DU?$char_traits@D@std@@V?$allocator@D@2@@std@@V?$vector@VResource@@V?$allocator@VResource@@@std@@@2@@std@@@2@$0A@@std@@@std@@@std@@QAEXPAU_Node@?$_Tree_nod@V?$_Tmap_traits@V?$basic_string@DU?$char_traits@D@std@@V?$allocator@D@2@@std@@V?$vector@VResource@@V?$allocator@VResource@@@std@@@2@U?$less@V?$basic_string@DU?$char_traits@D@std@@V?$allocator@D@2@@std@@@2@V?$allocator@U?$pair@$$CBV?$basic_string@DU?$char_traits@D@std@@V?$allocator@D@2@@std@@V?$vector@VResource@@V?$allocator@VResource@@@std@@@2@@std@@@2@$0A@@std@@@2@@Z
	?destroy@?$allocator@U_Node@?$_Tree_nod@V?$_Tset_traits@V?$basic_string@DU?$char_traits@D@std@@V?$allocator@D@2@@std@@UHeaderLess@@V?$allocator@V?$basic_string@DU?$char_traits@D@std@@V?$allocator@D@2@@std@@@2@$0A@@std@@@std@@@std@@QAEXPAU_Node@?$_Tree_nod@V?$_Tset_traits@V?$basic_string@DU?$char_traits@D@std@@V?$allocator@D@2@@std@@UHeaderLess@@V?$allocator@V?$basic_string@DU?$char_traits@D@std@@V?$allocator@D@2@@std@@@2@$0A@@std@@@2@@Z
	?destroy@?$allocator@V?$basic_string@DU?$char_traits@D@std@@V?$allocator@D@2@@std@@@std@@QAEXPAV?$basic_string@DU?$char_traits@D@std@@V?$allocator@D@2@@2@@Z
	?destroy@?$allocator@VResource@@@std@@QAEXPAVResource@@@Z
	?destroy@?$allocator@W4ParseState@DDXParser@@@std@@QAEXPAW4ParseState@DDXParser@@@Z
	?dods_keep_temps@@3HA
	?empty@?$_Tree@V?$_Tmap_traits@PAU_iobuf@@PAUCacheEntry@HTTPCache@@U?$less@PAU_iobuf@@@std@@V?$allocator@U?$pair@QAU_iobuf@@PAUCacheEntry@HTTPCache@@@std@@@5@$0A@@std@@@std@@QBE_NXZ
	?empty@?$deque@PAVAttrTable@@V?$allocator@PAVAttrTable@@@std@@@std@@QBE_NXZ
	?empty@?$deque@PAVBaseType@@V?$allocator@PAVBaseType@@@std@@@std@@QBE_NXZ
	?empty@?$deque@W4ParseState@DDXParser@@V?$allocator@W4ParseState@DDXParser@@@std@@@std@@QBE_NXZ
	?empty@?$vector@V?$basic_string@DU?$char_traits@D@std@@V?$allocator@D@2@@std@@V?$allocator@V?$basic_string@DU?$char_traits@D@std@@V?$allocator@D@2@@std@@@2@@std@@QBE_NXZ
	?end@?$_Iosb@H@std@@2W4_Seekdir@12@B
	?end@?$_Tree@V?$_Tmap_traits@PAU_iobuf@@PAUCacheEntry@HTTPCache@@U?$less@PAU_iobuf@@@std@@V?$allocator@U?$pair@QAU_iobuf@@PAUCacheEntry@HTTPCache@@@std@@@5@$0A@@std@@@std@@QAE?AViterator@12@XZ
	?end@?$_Tree@V?$_Tmap_traits@V?$basic_string@DU?$char_traits@D@std@@V?$allocator@D@2@@std@@V12@U?$less@V?$basic_string@DU?$char_traits@D@std@@V?$allocator@D@2@@std@@@2@V?$allocator@U?$pair@$$CBV?$basic_string@DU?$char_traits@D@std@@V?$allocator@D@2@@std@@V12@@std@@@2@$0A@@std@@@std@@QAE?AViterator@12@XZ
	?end@?$_Tree@V?$_Tmap_traits@V?$basic_string@DU?$char_traits@D@std@@V?$allocator@D@2@@std@@V?$vector@VResource@@V?$allocator@VResource@@@std@@@2@U?$less@V?$basic_string@DU?$char_traits@D@std@@V?$allocator@D@2@@std@@@2@V?$allocator@U?$pair@$$CBV?$basic_string@DU?$char_traits@D@std@@V?$allocator@D@2@@std@@V?$vector@VResource@@V?$allocator@VResource@@@std@@@2@@std@@@2@$0A@@std@@@std@@QAE?AViterator@12@XZ
	?end@?$_Tree@V?$_Tmap_traits@V?$basic_string@DU?$char_traits@D@std@@V?$allocator@D@2@@std@@V?$vector@VResource@@V?$allocator@VResource@@@std@@@2@U?$less@V?$basic_string@DU?$char_traits@D@std@@V?$allocator@D@2@@std@@@2@V?$allocator@U?$pair@$$CBV?$basic_string@DU?$char_traits@D@std@@V?$allocator@D@2@@std@@V?$vector@VResource@@V?$allocator@VResource@@@std@@@2@@std@@@2@$0A@@std@@@std@@QBE?AVconst_iterator@12@XZ
	?end@?$_Tree@V?$_Tset_traits@V?$basic_string@DU?$char_traits@D@std@@V?$allocator@D@2@@std@@UHeaderLess@@V?$allocator@V?$basic_string@DU?$char_traits@D@std@@V?$allocator@D@2@@std@@@2@$0A@@std@@@std@@QAE?AViterator@12@XZ
	?end@?$vector@PAUCacheEntry@HTTPCache@@V?$allocator@PAUCacheEntry@HTTPCache@@@std@@@std@@QAE?AV?$_Vector_iterator@PAUCacheEntry@HTTPCache@@V?$allocator@PAUCacheEntry@HTTPCache@@@std@@@2@XZ
	?end@?$vector@U?$pair@V?$basic_string@DU?$char_traits@D@std@@V?$allocator@D@2@@std@@V?$vector@VResource@@V?$allocator@VResource@@@std@@@2@@std@@V?$allocator@U?$pair@V?$basic_string@DU?$char_traits@D@std@@V?$allocator@D@2@@std@@V?$vector@VResource@@V?$allocator@VResource@@@std@@@2@@std@@@2@@std@@QAE?AV?$_Vector_iterator@U?$pair@V?$basic_string@DU?$char_traits@D@std@@V?$allocator@D@2@@std@@V?$vector@VResource@@V?$allocator@VResource@@@std@@@2@@std@@V?$allocator@U?$pair@V?$basic_string@DU?$char_traits@D@std@@V?$allocator@D@2@@std@@V?$vector@VResource@@V?$allocator@VResource@@@std@@@2@@std@@@2@@2@XZ
	?end@?$vector@U?$pair@V?$basic_string@DU?$char_traits@D@std@@V?$allocator@D@2@@std@@V?$vector@VResource@@V?$allocator@VResource@@@std@@@2@@std@@V?$allocator@U?$pair@V?$basic_string@DU?$char_traits@D@std@@V?$allocator@D@2@@std@@V?$vector@VResource@@V?$allocator@VResource@@@std@@@2@@std@@@2@@std@@QBE?AV?$_Vector_const_iterator@U?$pair@V?$basic_string@DU?$char_traits@D@std@@V?$allocator@D@2@@std@@V?$vector@VResource@@V?$allocator@VResource@@@std@@@2@@std@@V?$allocator@U?$pair@V?$basic_string@DU?$char_traits@D@std@@V?$allocator@D@2@@std@@V?$vector@VResource@@V?$allocator@VResource@@@std@@@2@@std@@@2@@2@XZ
	?end@?$vector@V?$basic_string@DU?$char_traits@D@std@@V?$allocator@D@2@@std@@V?$allocator@V?$basic_string@DU?$char_traits@D@std@@V?$allocator@D@2@@std@@@2@@std@@QAE?AV?$_Vector_iterator@V?$basic_string@DU?$char_traits@D@std@@V?$allocator@D@2@@std@@V?$allocator@V?$basic_string@DU?$char_traits@D@std@@V?$allocator@D@2@@std@@@2@@2@XZ
	?end@?$vector@V?$basic_string@DU?$char_traits@D@std@@V?$allocator@D@2@@std@@V?$allocator@V?$basic_string@DU?$char_traits@D@std@@V?$allocator@D@2@@std@@@2@@std@@QBE?AV?$_Vector_const_iterator@V?$basic_string@DU?$char_traits@D@std@@V?$allocator@D@2@@std@@V?$allocator@V?$basic_string@DU?$char_traits@D@std@@V?$allocator@D@2@@std@@@2@@2@XZ
	?end@?$vector@VResource@@V?$allocator@VResource@@@std@@@std@@QAE?AV?$_Vector_iterator@VResource@@V?$allocator@VResource@@@std@@@2@XZ
	?end@?$vector@VResource@@V?$allocator@VResource@@@std@@@std@@QBE?AV?$_Vector_const_iterator@VResource@@V?$allocator@VResource@@@std@@@2@XZ
	?eofbit@?$_Iosb@H@std@@2W4_Iostate@12@B
	?equal_range@?$_Tree@V?$_Tmap_traits@PAU_iobuf@@PAUCacheEntry@HTTPCache@@U?$less@PAU_iobuf@@@std@@V?$allocator@U?$pair@QAU_iobuf@@PAUCacheEntry@HTTPCache@@@std@@@5@$0A@@std@@@std@@QAE?AU?$pair@Viterator@?$_Tree@V?$_Tmap_traits@PAU_iobuf@@PAUCacheEntry@HTTPCache@@U?$less@PAU_iobuf@@@std@@V?$allocator@U?$pair@QAU_iobuf@@PAUCacheEntry@HTTPCache@@@std@@@5@$0A@@std@@@std@@V123@@2@ABQAU_iobuf@@@Z
	?erase@?$_Tree@V?$_Tmap_traits@PAU_iobuf@@PAUCacheEntry@HTTPCache@@U?$less@PAU_iobuf@@@std@@V?$allocator@U?$pair@QAU_iobuf@@PAUCacheEntry@HTTPCache@@@std@@@5@$0A@@std@@@std@@QAE?AViterator@12@V312@0@Z
	?erase@?$_Tree@V?$_Tmap_traits@PAU_iobuf@@PAUCacheEntry@HTTPCache@@U?$less@PAU_iobuf@@@std@@V?$allocator@U?$pair@QAU_iobuf@@PAUCacheEntry@HTTPCache@@@std@@@5@$0A@@std@@@std@@QAE?AViterator@12@V312@@Z
	?erase@?$_Tree@V?$_Tmap_traits@PAU_iobuf@@PAUCacheEntry@HTTPCache@@U?$less@PAU_iobuf@@@std@@V?$allocator@U?$pair@QAU_iobuf@@PAUCacheEntry@HTTPCache@@@std@@@5@$0A@@std@@@std@@QAEIABQAU_iobuf@@@Z
	?erase@?$_Tree@V?$_Tmap_traits@V?$basic_string@DU?$char_traits@D@std@@V?$allocator@D@2@@std@@V12@U?$less@V?$basic_string@DU?$char_traits@D@std@@V?$allocator@D@2@@std@@@2@V?$allocator@U?$pair@$$CBV?$basic_string@DU?$char_traits@D@std@@V?$allocator@D@2@@std@@V12@@std@@@2@$0A@@std@@@std@@QAE?AViterator@12@V312@0@Z
	?erase@?$_Tree@V?$_Tmap_traits@V?$basic_string@DU?$char_traits@D@std@@V?$allocator@D@2@@std@@V12@U?$less@V?$basic_string@DU?$char_traits@D@std@@V?$allocator@D@2@@std@@@2@V?$allocator@U?$pair@$$CBV?$basic_string@DU?$char_traits@D@std@@V?$allocator@D@2@@std@@V12@@std@@@2@$0A@@std@@@std@@QAE?AViterator@12@V312@@Z
	?erase@?$_Tree@V?$_Tmap_traits@V?$basic_string@DU?$char_traits@D@std@@V?$allocator@D@2@@std@@V?$vector@VResource@@V?$allocator@VResource@@@std@@@2@U?$less@V?$basic_string@DU?$char_traits@D@std@@V?$allocator@D@2@@std@@@2@V?$allocator@U?$pair@$$CBV?$basic_string@DU?$char_traits@D@std@@V?$allocator@D@2@@std@@V?$vector@VResource@@V?$allocator@VResource@@@std@@@2@@std@@@2@$0A@@std@@@std@@QAE?AViterator@12@V312@0@Z
	?erase@?$_Tree@V?$_Tmap_traits@V?$basic_string@DU?$char_traits@D@std@@V?$allocator@D@2@@std@@V?$vector@VResource@@V?$allocator@VResource@@@std@@@2@U?$less@V?$basic_string@DU?$char_traits@D@std@@V?$allocator@D@2@@std@@@2@V?$allocator@U?$pair@$$CBV?$basic_string@DU?$char_traits@D@std@@V?$allocator@D@2@@std@@V?$vector@VResource@@V?$allocator@VResource@@@std@@@2@@std@@@2@$0A@@std@@@std@@QAE?AViterator@12@V312@@Z
	?erase@?$_Tree@V?$_Tset_traits@V?$basic_string@DU?$char_traits@D@std@@V?$allocator@D@2@@std@@UHeaderLess@@V?$allocator@V?$basic_string@DU?$char_traits@D@std@@V?$allocator@D@2@@std@@@2@$0A@@std@@@std@@QAE?AViterator@12@V312@0@Z
	?erase@?$_Tree@V?$_Tset_traits@V?$basic_string@DU?$char_traits@D@std@@V?$allocator@D@2@@std@@UHeaderLess@@V?$allocator@V?$basic_string@DU?$char_traits@D@std@@V?$allocator@D@2@@std@@@2@$0A@@std@@@std@@QAE?AViterator@12@V312@@Z
	?erase@?$vector@PAUCacheEntry@HTTPCache@@V?$allocator@PAUCacheEntry@HTTPCache@@@std@@@std@@QAE?AV?$_Vector_iterator@PAUCacheEntry@HTTPCache@@V?$allocator@PAUCacheEntry@HTTPCache@@@std@@@2@V32@0@Z
	?erase@?$vector@V?$basic_string@DU?$char_traits@D@std@@V?$allocator@D@2@@std@@V?$allocator@V?$basic_string@DU?$char_traits@D@std@@V?$allocator@D@2@@std@@@2@@std@@QAE?AV?$_Vector_iterator@V?$basic_string@DU?$char_traits@D@std@@V?$allocator@D@2@@std@@V?$allocator@V?$basic_string@DU?$char_traits@D@std@@V?$allocator@D@2@@std@@@2@@2@V32@0@Z
	?erase@?$vector@VResource@@V?$allocator@VResource@@@std@@@std@@QAE?AV?$_Vector_iterator@VResource@@V?$allocator@VResource@@@std@@@2@V32@0@Z
	?expired_gc@HTTPCache@@AAEXXZ
	?failbit@?$_Iosb@H@std@@2W4_Iostate@12@B
	?fetch_url@HTTPConnect@@QAEPAVHTTPResponse@@ABV?$basic_string@DU?$char_traits@D@std@@V?$allocator@D@2@@std@@@Z
	?find@?$_Tree@V?$_Tmap_traits@V?$basic_string@DU?$char_traits@D@std@@V?$allocator@D@2@@std@@V?$vector@VResource@@V?$allocator@VResource@@@std@@@2@U?$less@V?$basic_string@DU?$char_traits@D@std@@V?$allocator@D@2@@std@@@2@V?$allocator@U?$pair@$$CBV?$basic_string@DU?$char_traits@D@std@@V?$allocator@D@2@@std@@V?$vector@VResource@@V?$allocator@VResource@@@std@@@2@@std@@@2@$0A@@std@@@std@@QAE?AViterator@12@ABV?$basic_string@DU?$char_traits@D@std@@V?$allocator@D@2@@2@@Z
	?find@?$_Tree@V?$_Tmap_traits@V?$basic_string@DU?$char_traits@D@std@@V?$allocator@D@2@@std@@V?$vector@VResource@@V?$allocator@VResource@@@std@@@2@U?$less@V?$basic_string@DU?$char_traits@D@std@@V?$allocator@D@2@@std@@@2@V?$allocator@U?$pair@$$CBV?$basic_string@DU?$char_traits@D@std@@V?$allocator@D@2@@std@@V?$vector@VResource@@V?$allocator@VResource@@@std@@@2@@std@@@2@$0A@@std@@@std@@QBE?AVconst_iterator@12@ABV?$basic_string@DU?$char_traits@D@std@@V?$allocator@D@2@@2@@Z
	?fixed@?$_Iosb@H@std@@2W4_Fmtflags@12@B
	?floatfield@?$_Iosb@H@std@@2W4_Fmtflags@12@B
	?get_ais_database@RCReader@@QBE?AV?$basic_string@DU?$char_traits@D@std@@V?$allocator@D@2@@std@@XZ
	?get_ais_resource@AISMerge@@UAEPAVResponse@@ABV?$basic_string@DU?$char_traits@D@std@@V?$allocator@D@2@@std@@@Z
	?get_always_validate@HTTPCache@@QBE_NXZ
	?get_always_validate@RCReader@@QAE?BHXZ
	?get_cache_control@HTTPCache@@QAE?AV?$vector@V?$basic_string@DU?$char_traits@D@std@@V?$allocator@D@2@@std@@V?$allocator@V?$basic_string@DU?$char_traits@D@std@@V?$allocator@D@2@@std@@@2@@std@@XZ
	?get_cache_disconnected@HTTPCache@@QBE?AW4CacheDisconnectedMode@@XZ
	?get_cache_root@HTTPCache@@QBE?AV?$basic_string@DU?$char_traits@D@std@@V?$allocator@D@2@@std@@XZ
	?get_cached_response@HTTPCache@@QAEPAU_iobuf@@ABV?$basic_string@DU?$char_traits@D@std@@V?$allocator@D@2@@std@@AAV?$vector@V?$basic_string@DU?$char_traits@D@std@@V?$allocator@D@2@@std@@V?$allocator@V?$basic_string@DU?$char_traits@D@std@@V?$allocator@D@2@@std@@@2@@4@@Z
	?get_cached_response_body@HTTPCache@@QAEPAU_iobuf@@ABV?$basic_string@DU?$char_traits@D@std@@V?$allocator@D@2@@std@@@Z
	?get_conditional_request_headers@HTTPCache@@QAE?AV?$vector@V?$basic_string@DU?$char_traits@D@std@@V?$allocator@D@2@@std@@V?$allocator@V?$basic_string@DU?$char_traits@D@std@@V?$allocator@D@2@@std@@@2@@std@@ABV?$basic_string@DU?$char_traits@D@std@@V?$allocator@D@2@@3@@Z
	?get_default_expiration@HTTPCache@@QBEHXZ
	?get_default_expires@RCReader@@QAE?BHXZ
	?get_deflate@RCReader@@QAE?B_NXZ
	?get_dods_cache_root@RCReader@@QAE?BV?$basic_string@DU?$char_traits@D@std@@V?$allocator@D@2@@std@@XZ
	?get_entry_from_cache_table@HTTPCache@@ABEPAUCacheEntry@1@ABV?$basic_string@DU?$char_traits@D@std@@V?$allocator@D@2@@std@@@Z
	?get_entry_from_cache_table@HTTPCache@@ABEPAUCacheEntry@1@HABV?$basic_string@DU?$char_traits@D@std@@V?$allocator@D@2@@std@@@Z
	?get_factory@DDS@@QBEPAVBaseTypeFactory@@XZ
	?get_headers@BuildHeaders@@QAEPAUcurl_slist@@XZ
	?get_headers@HTTPResponse@@UBEPAV?$vector@V?$basic_string@DU?$char_traits@D@std@@V?$allocator@D@2@@std@@V?$allocator@V?$basic_string@DU?$char_traits@D@std@@V?$allocator@D@2@@std@@@2@@std@@XZ
	?get_ignore_expires@RCReader@@QAE?BHXZ
	?get_max_cache_size@RCReader@@QAE?BHXZ
	?get_max_cached_obj@RCReader@@QAE?BIXZ
	?get_max_entry_size@HTTPCache@@QBEKXZ
	?get_max_size@HTTPCache@@QBEKXZ
	?get_no_proxy_for_host@RCReader@@QAE?BV?$basic_string@DU?$char_traits@D@std@@V?$allocator@D@2@@std@@XZ
	?get_object_type@ParseHeader@@QAE?AW4ObjectType@@XZ
	?get_protocol@ParseHeader@@QAE?AV?$basic_string@DU?$char_traits@D@std@@V?$allocator@D@2@@std@@XZ
	?get_protocol@Response@@UBE?AV?$basic_string@DU?$char_traits@D@std@@V?$allocator@D@2@@std@@XZ
	?get_proxy_for_regexp@RCReader@@QAE?BV?$basic_string@DU?$char_traits@D@std@@V?$allocator@D@2@@std@@XZ
	?get_proxy_server_host@RCReader@@QAE?BV?$basic_string@DU?$char_traits@D@std@@V?$allocator@D@2@@std@@XZ
	?get_proxy_server_port@RCReader@@QAE?BHXZ
	?get_proxy_server_userpw@RCReader@@QAE?BV?$basic_string@DU?$char_traits@D@std@@V?$allocator@D@2@@std@@XZ
	?get_resource@AISResources@@UAE?AV?$vector@VResource@@V?$allocator@VResource@@@std@@@std@@ABV?$basic_string@DU?$char_traits@D@std@@V?$allocator@D@2@@3@@Z
	?get_rule@Resource@@UBE?AW4rule@1@XZ
	?get_server@ParseHeader@@QAE?AV?$basic_string@DU?$char_traits@D@std@@V?$allocator@D@2@@std@@XZ
	?get_single_user_lock@HTTPCache@@AAE_N_N@Z
	?get_status@Response@@UBEHXZ
	?get_stream@Response@@UBEPAU_iobuf@@XZ
	?get_temp_file@@YA?AV?$basic_string@DU?$char_traits@D@std@@V?$allocator@D@2@@std@@AAPAU_iobuf@@@Z
	?get_type@@YA?AW4ObjectType@@ABV?$basic_string@DU?$char_traits@D@std@@V?$allocator@D@2@@std@@@Z
	?get_type@Response@@UBE?AW4ObjectType@@XZ
	?get_url@Resource@@UBE?AV?$basic_string@DU?$char_traits@D@std@@V?$allocator@D@2@@std@@XZ
	?get_use_cache@RCReader@@QAE?B_NXZ
	?get_version@Response@@UBE?AV?$basic_string@DU?$char_traits@D@std@@V?$allocator@D@2@@std@@XZ
	?goodbit@?$_Iosb@H@std@@2W4_Iostate@12@B
	?has_resource@AISResources@@UBE_NABV?$basic_string@DU?$char_traits@D@std@@V?$allocator@D@2@@std@@@Z
	?hex@?$_Iosb@H@std@@2W4_Fmtflags@12@B
	?hits_gc@HTTPCache@@AAEXXZ
	?in@?$_Iosb@H@std@@2W4_Openmode@12@B
	?initialize_instance@RCReader@@CAXXZ
	?insert@?$_Tree@V?$_Tmap_traits@PAU_iobuf@@PAUCacheEntry@HTTPCache@@U?$less@PAU_iobuf@@@std@@V?$allocator@U?$pair@QAU_iobuf@@PAUCacheEntry@HTTPCache@@@std@@@5@$0A@@std@@@std@@QAE?AU?$pair@Viterator@?$_Tree@V?$_Tmap_traits@PAU_iobuf@@PAUCacheEntry@HTTPCache@@U?$less@PAU_iobuf@@@std@@V?$allocator@U?$pair@QAU_iobuf@@PAUCacheEntry@HTTPCache@@@std@@@5@$0A@@std@@@std@@_N@2@ABU?$pair@QAU_iobuf@@PAUCacheEntry@HTTPCache@@@2@@Z
	?insert@?$_Tree@V?$_Tmap_traits@PAU_iobuf@@PAUCacheEntry@HTTPCache@@U?$less@PAU_iobuf@@@std@@V?$allocator@U?$pair@QAU_iobuf@@PAUCacheEntry@HTTPCache@@@std@@@5@$0A@@std@@@std@@QAE?AViterator@12@V312@ABU?$pair@QAU_iobuf@@PAUCacheEntry@HTTPCache@@@2@@Z
	?insert@?$_Tree@V?$_Tmap_traits@V?$basic_string@DU?$char_traits@D@std@@V?$allocator@D@2@@std@@V?$vector@VResource@@V?$allocator@VResource@@@std@@@2@U?$less@V?$basic_string@DU?$char_traits@D@std@@V?$allocator@D@2@@std@@@2@V?$allocator@U?$pair@$$CBV?$basic_string@DU?$char_traits@D@std@@V?$allocator@D@2@@std@@V?$vector@VResource@@V?$allocator@VResource@@@std@@@2@@std@@@2@$0A@@std@@@std@@QAE?AU?$pair@Viterator@?$_Tree@V?$_Tmap_traits@V?$basic_string@DU?$char_traits@D@std@@V?$allocator@D@2@@std@@V?$vector@VResource@@V?$allocator@VResource@@@std@@@2@U?$less@V?$basic_string@DU?$char_traits@D@std@@V?$allocator@D@2@@std@@@2@V?$allocator@U?$pair@$$CBV?$basic_string@DU?$char_traits@D@std@@V?$allocator@D@2@@std@@V?$vector@VResource@@V?$allocator@VResource@@@std@@@2@@std@@@2@$0A@@std@@@std@@_N@2@ABU?$pair@$$CBV?$basic_string@DU?$char_traits@D@std@@V?$allocator@D@2@@std@@V?$vector@VResource@@V?$allocator@VResource@@@std@@@2@@2@@Z
	?insert@?$_Tree@V?$_Tset_traits@V?$basic_string@DU?$char_traits@D@std@@V?$allocator@D@2@@std@@UHeaderLess@@V?$allocator@V?$basic_string@DU?$char_traits@D@std@@V?$allocator@D@2@@std@@@2@$0A@@std@@@std@@QAE?AU?$pair@Viterator@?$_Tree@V?$_Tset_traits@V?$basic_string@DU?$char_traits@D@std@@V?$allocator@D@2@@std@@UHeaderLess@@V?$allocator@V?$basic_string@DU?$char_traits@D@std@@V?$allocator@D@2@@std@@@2@$0A@@std@@@std@@_N@2@ABV?$basic_string@DU?$char_traits@D@std@@V?$allocator@D@2@@2@@Z
	?insert@?$_Tree@V?$_Tset_traits@V?$basic_string@DU?$char_traits@D@std@@V?$allocator@D@2@@std@@UHeaderLess@@V?$allocator@V?$basic_string@DU?$char_traits@D@std@@V?$allocator@D@2@@std@@@2@$0A@@std@@@std@@QAE?AViterator@12@V312@ABV?$basic_string@DU?$char_traits@D@std@@V?$allocator@D@2@@2@@Z
	?insert@?$vector@PAUCacheEntry@HTTPCache@@V?$allocator@PAUCacheEntry@HTTPCache@@@std@@@std@@QAE?AV?$_Vector_iterator@PAUCacheEntry@HTTPCache@@V?$allocator@PAUCacheEntry@HTTPCache@@@std@@@2@V32@ABQAUCacheEntry@HTTPCache@@@Z
	?insert@?$vector@U?$pair@V?$basic_string@DU?$char_traits@D@std@@V?$allocator@D@2@@std@@V?$vector@VResource@@V?$allocator@VResource@@@std@@@2@@std@@V?$allocator@U?$pair@V?$basic_string@DU?$char_traits@D@std@@V?$allocator@D@2@@std@@V?$vector@VResource@@V?$allocator@VResource@@@std@@@2@@std@@@2@@std@@QAE?AV?$_Vector_iterator@U?$pair@V?$basic_string@DU?$char_traits@D@std@@V?$allocator@D@2@@std@@V?$vector@VResource@@V?$allocator@VResource@@@std@@@2@@std@@V?$allocator@U?$pair@V?$basic_string@DU?$char_traits@D@std@@V?$allocator@D@2@@std@@V?$vector@VResource@@V?$allocator@VResource@@@std@@@2@@std@@@2@@2@V32@ABU?$pair@V?$basic_string@DU?$char_traits@D@std@@V?$allocator@D@2@@std@@V?$vector@VResource@@V?$allocator@VResource@@@std@@@2@@2@@Z
	?insert@?$vector@V?$basic_string@DU?$char_traits@D@std@@V?$allocator@D@2@@std@@V?$allocator@V?$basic_string@DU?$char_traits@D@std@@V?$allocator@D@2@@std@@@2@@std@@QAE?AV?$_Vector_iterator@V?$basic_string@DU?$char_traits@D@std@@V?$allocator@D@2@@std@@V?$allocator@V?$basic_string@DU?$char_traits@D@std@@V?$allocator@D@2@@std@@@2@@2@V32@ABV?$basic_string@DU?$char_traits@D@std@@V?$allocator@D@2@@2@@Z
	?insert@?$vector@VResource@@V?$allocator@VResource@@@std@@@std@@QAE?AV?$_Vector_iterator@VResource@@V?$allocator@VResource@@@std@@@2@V32@ABVResource@@@Z
	?instance@HTTPCache@@SAPAV1@ABV?$basic_string@DU?$char_traits@D@std@@V?$allocator@D@2@@std@@_N@Z
	?instance@RCReader@@SAPAV1@XZ
	?intern@AISDatabaseParser@@QAEXABV?$basic_string@DU?$char_traits@D@std@@V?$allocator@D@2@@std@@PAVAISResources@@@Z
	?internal@?$_Iosb@H@std@@2W4_Fmtflags@12@B
	?is_cache_enabled@Connect@@QAE_NXZ
	?is_cache_enabled@HTTPCache@@QBE_NXZ
	?is_cache_enabled@HTTPConnect@@QAE_NXZ
	?is_cache_protected@HTTPCache@@QBE_NXZ
	?is_expire_ignored@HTTPCache@@QBE_NXZ
	?is_local@Connect@@QAE_NXZ
	?is_no_proxy_for_used@RCReader@@QAE_NXZ
	?is_proxy_for_used@RCReader@@QAE_NXZ
	?is_url_in_cache@HTTPCache@@QAE_NABV?$basic_string@DU?$char_traits@D@std@@V?$allocator@D@2@@std@@@Z
	?is_url_valid@HTTPCache@@QAE_NABV?$basic_string@DU?$char_traits@D@std@@V?$allocator@D@2@@std@@@Z
	?left@?$_Iosb@H@std@@2W4_Fmtflags@12@B
	?lower_bound@?$_Tree@V?$_Tmap_traits@PAU_iobuf@@PAUCacheEntry@HTTPCache@@U?$less@PAU_iobuf@@@std@@V?$allocator@U?$pair@QAU_iobuf@@PAUCacheEntry@HTTPCache@@@std@@@5@$0A@@std@@@std@@QAE?AViterator@12@ABQAU_iobuf@@@Z
	?lower_bound@?$_Tree@V?$_Tmap_traits@V?$basic_string@DU?$char_traits@D@std@@V?$allocator@D@2@@std@@V?$vector@VResource@@V?$allocator@VResource@@@std@@@2@U?$less@V?$basic_string@DU?$char_traits@D@std@@V?$allocator@D@2@@std@@@2@V?$allocator@U?$pair@$$CBV?$basic_string@DU?$char_traits@D@std@@V?$allocator@D@2@@std@@V?$vector@VResource@@V?$allocator@VResource@@@std@@@2@@std@@@2@$0A@@std@@@std@@QAE?AViterator@12@ABV?$basic_string@DU?$char_traits@D@std@@V?$allocator@D@2@@2@@Z
	?lower_bound@?$_Tree@V?$_Tmap_traits@V?$basic_string@DU?$char_traits@D@std@@V?$allocator@D@2@@std@@V?$vector@VResource@@V?$allocator@VResource@@@std@@@2@U?$less@V?$basic_string@DU?$char_traits@D@std@@V?$allocator@D@2@@std@@@2@V?$allocator@U?$pair@$$CBV?$basic_string@DU?$char_traits@D@std@@V?$allocator@D@2@@std@@V?$vector@VResource@@V?$allocator@VResource@@@std@@@2@@std@@@2@$0A@@std@@@std@@QBE?AVconst_iterator@12@ABV?$basic_string@DU?$char_traits@D@std@@V?$allocator@D@2@@2@@Z
	?max_size@?$_Tree@V?$_Tmap_traits@PAU_iobuf@@PAUCacheEntry@HTTPCache@@U?$less@PAU_iobuf@@@std@@V?$allocator@U?$pair@QAU_iobuf@@PAUCacheEntry@HTTPCache@@@std@@@5@$0A@@std@@@std@@QBEIXZ
	?max_size@?$_Tree@V?$_Tmap_traits@V?$basic_string@DU?$char_traits@D@std@@V?$allocator@D@2@@std@@V?$vector@VResource@@V?$allocator@VResource@@@std@@@2@U?$less@V?$basic_string@DU?$char_traits@D@std@@V?$allocator@D@2@@std@@@2@V?$allocator@U?$pair@$$CBV?$basic_string@DU?$char_traits@D@std@@V?$allocator@D@2@@std@@V?$vector@VResource@@V?$allocator@VResource@@@std@@@2@@std@@@2@$0A@@std@@@std@@QBEIXZ
	?max_size@?$_Tree@V?$_Tset_traits@V?$basic_string@DU?$char_traits@D@std@@V?$allocator@D@2@@std@@UHeaderLess@@V?$allocator@V?$basic_string@DU?$char_traits@D@std@@V?$allocator@D@2@@std@@@2@$0A@@std@@@std@@QBEIXZ
	?max_size@?$allocator@PAUCacheEntry@HTTPCache@@@std@@QBEIXZ
	?max_size@?$allocator@U?$pair@$$CBV?$basic_string@DU?$char_traits@D@std@@V?$allocator@D@2@@std@@V?$vector@VResource@@V?$allocator@VResource@@@std@@@2@@std@@@std@@QBEIXZ
	?max_size@?$allocator@U?$pair@QAU_iobuf@@PAUCacheEntry@HTTPCache@@@std@@@std@@QBEIXZ
	?max_size@?$allocator@U?$pair@V?$basic_string@DU?$char_traits@D@std@@V?$allocator@D@2@@std@@V?$vector@VResource@@V?$allocator@VResource@@@std@@@2@@std@@@std@@QBEIXZ
	?max_size@?$allocator@V?$basic_string@DU?$char_traits@D@std@@V?$allocator@D@2@@std@@@std@@QBEIXZ
	?max_size@?$allocator@VResource@@@std@@QBEIXZ
	?max_size@?$vector@PAUCacheEntry@HTTPCache@@V?$allocator@PAUCacheEntry@HTTPCache@@@std@@@std@@QBEIXZ
	?max_size@?$vector@U?$pair@V?$basic_string@DU?$char_traits@D@std@@V?$allocator@D@2@@std@@V?$vector@VResource@@V?$allocator@VResource@@@std@@@2@@std@@V?$allocator@U?$pair@V?$basic_string@DU?$char_traits@D@std@@V?$allocator@D@2@@std@@V?$vector@VResource@@V?$allocator@VResource@@@std@@@2@@std@@@2@@std@@QBEIXZ
	?max_size@?$vector@V?$basic_string@DU?$char_traits@D@std@@V?$allocator@D@2@@std@@V?$allocator@V?$basic_string@DU?$char_traits@D@std@@V?$allocator@D@2@@std@@@2@@std@@QBEIXZ
	?max_size@?$vector@VResource@@V?$allocator@VResource@@@std@@@std@@QBEIXZ
	?merge@AISMerge@@UAEXABV?$basic_string@DU?$char_traits@D@std@@V?$allocator@D@2@@std@@AAVDAS@@@Z
	?messages@?$_Locbase@H@std@@2HB
	?monetary@?$_Locbase@H@std@@2HB
	?none@?$_Locbase@H@std@@2HB
	?numeric@?$_Locbase@H@std@@2HB
	?oct@?$_Iosb@H@std@@2W4_Fmtflags@12@B
	?out@?$_Iosb@H@std@@2W4_Openmode@12@B
	?parse_headers@HTTPCache@@AAEXPAUCacheEntry@1@ABV?$vector@V?$basic_string@DU?$char_traits@D@std@@V?$allocator@D@2@@std@@V?$allocator@V?$basic_string@DU?$char_traits@D@std@@V?$allocator@D@2@@std@@@2@@std@@@Z
	?parse_mime@Connect@@AAEXPAVResponse@@@Z
	?parse_time@@YA_JPBD_N@Z
	?perform_garbage_collection@HTTPCache@@AAEXXZ
	?plain_fetch_url@HTTPConnect@@AAEPAVHTTPResponse@@ABV?$basic_string@DU?$char_traits@D@std@@V?$allocator@D@2@@std@@@Z
	?pop_back@?$deque@PAVAttrTable@@V?$allocator@PAVAttrTable@@@std@@@std@@QAEXXZ
	?pop_back@?$deque@PAVBaseType@@V?$allocator@PAVBaseType@@@std@@@std@@QAEXXZ
	?pop_back@?$deque@W4ParseState@DDXParser@@V?$allocator@W4ParseState@DDXParser@@@std@@@std@@QAEXXZ
	?pop_back@?$vector@V?$basic_string@DU?$char_traits@D@std@@V?$allocator@D@2@@std@@V?$allocator@V?$basic_string@DU?$char_traits@D@std@@V?$allocator@D@2@@std@@@2@@std@@QAEXXZ
	?process_data@Connect@@AAEXAAVDataDDS@@PAVResponse@@@Z
	?purge_cache@HTTPCache@@QAEXXZ
	?push_back@?$vector@PAUCacheEntry@HTTPCache@@V?$allocator@PAUCacheEntry@HTTPCache@@@std@@@std@@QAEXABQAUCacheEntry@HTTPCache@@@Z
	?push_back@?$vector@U?$pair@V?$basic_string@DU?$char_traits@D@std@@V?$allocator@D@2@@std@@V?$vector@VResource@@V?$allocator@VResource@@@std@@@2@@std@@V?$allocator@U?$pair@V?$basic_string@DU?$char_traits@D@std@@V?$allocator@D@2@@std@@V?$vector@VResource@@V?$allocator@VResource@@@std@@@2@@std@@@2@@std@@QAEXABU?$pair@V?$basic_string@DU?$char_traits@D@std@@V?$allocator@D@2@@std@@V?$vector@VResource@@V?$allocator@VResource@@@std@@@2@@2@@Z
	?push_back@?$vector@V?$basic_string@DU?$char_traits@D@std@@V?$allocator@D@2@@std@@V?$allocator@V?$basic_string@DU?$char_traits@D@std@@V?$allocator@D@2@@std@@@2@@std@@QAEXABV?$basic_string@DU?$char_traits@D@std@@V?$allocator@D@2@@2@@Z
	?push_back@?$vector@VResource@@V?$allocator@VResource@@@std@@@std@@QAEXABVResource@@@Z
	?rbegin@?$_Tree@V?$_Tset_traits@V?$basic_string@DU?$char_traits@D@std@@V?$allocator@D@2@@std@@UHeaderLess@@V?$allocator@V?$basic_string@DU?$char_traits@D@std@@V?$allocator@D@2@@std@@@2@$0A@@std@@@std@@QAE?AV?$reverse_iterator@Viterator@?$_Tree@V?$_Tset_traits@V?$basic_string@DU?$char_traits@D@std@@V?$allocator@D@2@@std@@UHeaderLess@@V?$allocator@V?$basic_string@DU?$char_traits@D@std@@V?$allocator@D@2@@std@@@2@$0A@@std@@@std@@@2@XZ
	?read_data@Connect@@UAEXAAVDataDDS@@PAVResponse@@@Z
	?read_data_no_mime@Connect@@UAEXAAVDataDDS@@PAVResponse@@@Z
	?read_database@AISResources@@UAEXABV?$basic_string@DU?$char_traits@D@std@@V?$allocator@D@2@@std@@@Z
	?read_rc_file@RCReader@@AAE_NABV?$basic_string@DU?$char_traits@D@std@@V?$allocator@D@2@@std@@@Z
	?read_url@HTTPConnect@@AAEJABV?$basic_string@DU?$char_traits@D@std@@V?$allocator@D@2@@std@@PAU_iobuf@@PAV?$vector@V?$basic_string@DU?$char_traits@D@std@@V?$allocator@D@2@@std@@V?$allocator@V?$basic_string@DU?$char_traits@D@std@@V?$allocator@D@2@@std@@@2@@3@PBV53@@Z
	?release_cached_response@HTTPCache@@QAEXPAU_iobuf@@@Z
	?release_single_user_lock@HTTPCache@@AAEXXZ
	?remove_cache_entry@HTTPCache@@QAEXPAUCacheEntry@1@@Z
	?remove_entry_from_cache_table@HTTPCache@@AAEXABV?$basic_string@DU?$char_traits@D@std@@V?$allocator@D@2@@std@@@Z
	?rend@?$_Tree@V?$_Tset_traits@V?$basic_string@DU?$char_traits@D@std@@V?$allocator@D@2@@std@@UHeaderLess@@V?$allocator@V?$basic_string@DU?$char_traits@D@std@@V?$allocator@D@2@@std@@@2@$0A@@std@@@std@@QAE?AV?$reverse_iterator@Viterator@?$_Tree@V?$_Tset_traits@V?$basic_string@DU?$char_traits@D@std@@V?$allocator@D@2@@std@@UHeaderLess@@V?$allocator@V?$basic_string@DU?$char_traits@D@std@@V?$allocator@D@2@@std@@@2@$0A@@std@@@std@@@2@XZ
	?request_das@AISConnect@@UAEXAAVDAS@@@Z
	?request_das@Connect@@UAEXAAVDAS@@@Z
	?request_das_url@Connect@@UAEXAAVDAS@@@Z
	?request_data@Connect@@UAEXAAVDataDDS@@V?$basic_string@DU?$char_traits@D@std@@V?$allocator@D@2@@std@@@Z
	?request_data_url@Connect@@UAEXAAVDataDDS@@@Z
	?request_dds@Connect@@UAEXAAVDDS@@V?$basic_string@DU?$char_traits@D@std@@V?$allocator@D@2@@std@@@Z
	?request_dds_url@Connect@@UAEXAAVDDS@@@Z
	?request_ddx@Connect@@UAEXAAVDDS@@V?$basic_string@DU?$char_traits@D@std@@V?$allocator@D@2@@std@@@Z
	?request_ddx_url@Connect@@UAEXAAVDDS@@@Z
	?request_protocol@Connect@@UAE?AV?$basic_string@DU?$char_traits@D@std@@V?$allocator@D@2@@std@@XZ
	?request_version@Connect@@UAE?AV?$basic_string@DU?$char_traits@D@std@@V?$allocator@D@2@@std@@XZ
	?right@?$_Iosb@H@std@@2W4_Fmtflags@12@B
	?scientific@?$_Iosb@H@std@@2W4_Fmtflags@12@B
	?set_accept_deflate@Connect@@QAEX_N@Z
	?set_accept_deflate@HTTPConnect@@QAEX_N@Z
	?set_always_validate@HTTPCache@@QAEX_N@Z
	?set_cache_control@HTTPCache@@QAEXABV?$vector@V?$basic_string@DU?$char_traits@D@std@@V?$allocator@D@2@@std@@V?$allocator@V?$basic_string@DU?$char_traits@D@std@@V?$allocator@D@2@@std@@@2@@std@@@Z
	?set_cache_disconnected@HTTPCache@@QAEXW4CacheDisconnectedMode@@@Z
	?set_cache_enabled@Connect@@QAEX_N@Z
	?set_cache_enabled@HTTPCache@@QAEX_N@Z
	?set_cache_enabled@HTTPConnect@@QAEX_N@Z
	?set_cache_protected@HTTPCache@@QAEX_N@Z
	?set_cache_root@HTTPCache@@AAEXABV?$basic_string@DU?$char_traits@D@std@@V?$allocator@D@2@@std@@@Z
	?set_credentials@Connect@@QAEXV?$basic_string@DU?$char_traits@D@std@@V?$allocator@D@2@@std@@0@Z
	?set_credentials@HTTPConnect@@QAEXABV?$basic_string@DU?$char_traits@D@std@@V?$allocator@D@2@@std@@0@Z
	?set_default_expiration@HTTPCache@@QAEXH@Z
	?set_expire_ignored@HTTPCache@@QAEX_N@Z
	?set_headers@HTTPResponse@@UAEXPAV?$vector@V?$basic_string@DU?$char_traits@D@std@@V?$allocator@D@2@@std@@V?$allocator@V?$basic_string@DU?$char_traits@D@std@@V?$allocator@D@2@@std@@@2@@std@@@Z
	?set_max_entry_size@HTTPCache@@QAEXK@Z
	?set_max_size@HTTPCache@@QAEXK@Z
	?set_protocol@DataDDS@@QAEXABV?$basic_string@DU?$char_traits@D@std@@V?$allocator@D@2@@std@@@Z
	?set_protocol@Response@@UAEXABV?$basic_string@DU?$char_traits@D@std@@V?$allocator@D@2@@std@@@Z
	?set_rule@Resource@@UAEXABW4rule@1@@Z
	?set_status@Response@@UAEXH@Z
	?set_stream@Response@@UAEXPAU_iobuf@@@Z
	?set_type@Response@@UAEXW4ObjectType@@@Z
	?set_url@Resource@@UAEXABV?$basic_string@DU?$char_traits@D@std@@V?$allocator@D@2@@std@@@Z
	?set_version@DataDDS@@QAEXABV?$basic_string@DU?$char_traits@D@std@@V?$allocator@D@2@@std@@@Z
	?set_version@Response@@UAEXABV?$basic_string@DU?$char_traits@D@std@@V?$allocator@D@2@@std@@@Z
	?showbase@?$_Iosb@H@std@@2W4_Fmtflags@12@B
	?showpoint@?$_Iosb@H@std@@2W4_Fmtflags@12@B
	?showpos@?$_Iosb@H@std@@2W4_Fmtflags@12@B
	?size@?$_Tree@V?$_Tmap_traits@PAU_iobuf@@PAUCacheEntry@HTTPCache@@U?$less@PAU_iobuf@@@std@@V?$allocator@U?$pair@QAU_iobuf@@PAUCacheEntry@HTTPCache@@@std@@@5@$0A@@std@@@std@@QBEIXZ
	?size@?$_Tree@V?$_Tset_traits@V?$basic_string@DU?$char_traits@D@std@@V?$allocator@D@2@@std@@UHeaderLess@@V?$allocator@V?$basic_string@DU?$char_traits@D@std@@V?$allocator@D@2@@std@@@2@$0A@@std@@@std@@QBEIXZ
	?size@?$vector@PAUCacheEntry@HTTPCache@@V?$allocator@PAUCacheEntry@HTTPCache@@@std@@@std@@QBEIXZ
	?size@?$vector@U?$pair@V?$basic_string@DU?$char_traits@D@std@@V?$allocator@D@2@@std@@V?$vector@VResource@@V?$allocator@VResource@@@std@@@2@@std@@V?$allocator@U?$pair@V?$basic_string@DU?$char_traits@D@std@@V?$allocator@D@2@@std@@V?$vector@VResource@@V?$allocator@VResource@@@std@@@2@@std@@@2@@std@@QBEIXZ
	?size@?$vector@V?$basic_string@DU?$char_traits@D@std@@V?$allocator@D@2@@std@@V?$allocator@V?$basic_string@DU?$char_traits@D@std@@V?$allocator@D@2@@std@@@2@@std@@QBEIXZ
	?size@?$vector@VResource@@V?$allocator@VResource@@@std@@@std@@QBEIXZ
	?skipws@?$_Iosb@H@std@@2W4_Fmtflags@12@B
	?startGC@HTTPCache@@ABE_NXZ
	?stopGC@HTTPCache@@QBE_NXZ
	?strchr@@YAPADPADH@Z
	?time@?$_Locbase@H@std@@2HB
	?trunc@?$_Iosb@H@std@@2W4_Openmode@12@B
	?unitbuf@?$_Iosb@H@std@@2W4_Fmtflags@12@B
	?update_response@HTTPCache@@QAEXABV?$basic_string@DU?$char_traits@D@std@@V?$allocator@D@2@@std@@_JABV?$vector@V?$basic_string@DU?$char_traits@D@std@@V?$allocator@D@2@@std@@V?$allocator@V?$basic_string@DU?$char_traits@D@std@@V?$allocator@D@2@@std@@@2@@3@@Z
	?upper_bound@?$_Tree@V?$_Tmap_traits@PAU_iobuf@@PAUCacheEntry@HTTPCache@@U?$less@PAU_iobuf@@@std@@V?$allocator@U?$pair@QAU_iobuf@@PAUCacheEntry@HTTPCache@@@std@@@5@$0A@@std@@@std@@QAE?AViterator@12@ABQAU_iobuf@@@Z
	?uppercase@?$_Iosb@H@std@@2W4_Fmtflags@12@B
	?url_uses_no_proxy_for@HTTPConnect@@AAE_NABV?$basic_string@DU?$char_traits@D@std@@V?$allocator@D@2@@std@@@Z
	?url_uses_proxy_for@HTTPConnect@@AAE_NABV?$basic_string@DU?$char_traits@D@std@@V?$allocator@D@2@@std@@@Z
	?what@logic_error@std@@UBEPBDXZ
	?write_body@HTTPCache@@AAEHABV?$basic_string@DU?$char_traits@D@std@@V?$allocator@D@2@@std@@PBU_iobuf@@@Z
	?write_database@AISResources@@UAEXABV?$basic_string@DU?$char_traits@D@std@@V?$allocator@D@2@@std@@@Z
	?write_metadata@HTTPCache@@AAEXABV?$basic_string@DU?$char_traits@D@std@@V?$allocator@D@2@@std@@ABV?$vector@V?$basic_string@DU?$char_traits@D@std@@V?$allocator@D@2@@std@@V?$allocator@V?$basic_string@DU?$char_traits@D@std@@V?$allocator@D@2@@std@@@2@@3@@Z
	?write_rc_file@RCReader@@AAE_NABV?$basic_string@DU?$char_traits@D@std@@V?$allocator@D@2@@std@@@Z
	?www_lib_init@HTTPConnect@@AAEXXZ
	?www_trace@@3HA
	??1HTTPConnect@@UAE@XZ
	??0HTTPConnect@@QAE@PAVRCReader@@@Z
	??0Connect@@QAE@ABV?$basic_string@DU?$char_traits@D@std@@V?$allocator@D@2@@std@@V12@1@Z
	??0AISConnect@@QAE@ABV?$basic_string@DU?$char_traits@D@std@@V?$allocator@D@2@@std@@@Z
	??0AISConnect@@QAE@ABV?$basic_string@DU?$char_traits@D@std@@V?$allocator@D@2@@std@@0@Z

