; dlltool.exe -z libdap.def --export-all-symbols Array.obj AttrTable.obj BaseType.obj BaseTypeFactory.obj Byte.obj Clause.obj ConstraintEvaluator.obj Constructor.obj DAS.obj DDS.obj DDXParser.obj DataDDS.obj Error.obj Error.tab.obj Float32.obj Float64.obj GNURegex.obj GSEClause.obj GeoConstraint.obj GetOpt.obj Grid.obj GridGeoConstraint.obj Int16.obj Int32.obj InternalErr.obj PassiveArray.obj PassiveByte.obj PassiveFloat32.obj PassiveFloat64.obj PassiveInt16.obj PassiveInt32.obj PassiveStr.obj PassiveStructure.obj PassiveUInt16.obj PassiveUInt32.obj PassiveUrl.obj RValue.obj Sequence.obj SignalHandler.obj Str.obj Structure.obj UInt16.obj UInt32.obj Url.obj Vector.obj ce_expr.tab.obj ce_functions.obj das.tab.obj dds.tab.obj escaping.obj gse.tab.obj lex.Error.obj lex.ce_expr.obj lex.das.obj lex.dds.obj lex.gse_.obj parser-util.obj regex.obj strcasecmp.obj strncasecmp.obj strnlen1.obj util.obj xdrutil_ppc.obj
EXPORTS
	?AttrType_to_String@@YA?AV?$basic_string@DU?$char_traits@D@std@@V?$allocator@D@2@@std@@W4AttrType@@@Z
	?Error_buffer@@YAPAXPAU_iobuf@@@Z
	?Error_create_buffer@@YAPAUyy_buffer_state@@PAU_iobuf@@H@Z
	?Error_delete_buffer@@YAXPAUyy_buffer_state@@@Z
	?Error_delete_buffer@@YAXPAX@Z
	?Error_flush_buffer@@YAXPAUyy_buffer_state@@@Z
	?Error_init_buffer@@YAXPAUyy_buffer_state@@PAU_iobuf@@@Z
	?Error_load_buffer_state@@YAXXZ
	?Error_scan_buffer@@YAPAUyy_buffer_state@@PADI@Z
	?Error_scan_bytes@@YAPAUyy_buffer_state@@PBDH@Z
	?Error_scan_string@@YAPAUyy_buffer_state@@PBD@Z
	?Error_switch_to_buffer@@YAXPAUyy_buffer_state@@@Z
	?Error_switch_to_buffer@@YAXPAX@Z
	?Errorchar@@3HA
	?Errordebug@@3HA
	?Errorerror@@YAXPAD@Z
	?Errorin@@3PAU_iobuf@@A
	?Errorleng@@3HA
	?Errorlex@@YAHXZ
	?Errorlval@@3TYYSTYPE@@A
	?Errornerrs@@3HA
	?Errorout@@3PAU_iobuf@@A
	?Errorparse@@YAHPAX@Z
	?Errorrestart@@YAXPAU_iobuf@@@Z
	?Errortext@@3PADA
	?NewArray@BaseTypeFactory@@UBEPAVArray@@ABV?$basic_string@DU?$char_traits@D@std@@V?$allocator@D@2@@std@@PAVBaseType@@@Z
	?NewByte@BaseTypeFactory@@UBEPAVByte@@ABV?$basic_string@DU?$char_traits@D@std@@V?$allocator@D@2@@std@@@Z
	?NewFloat32@BaseTypeFactory@@UBEPAVFloat32@@ABV?$basic_string@DU?$char_traits@D@std@@V?$allocator@D@2@@std@@@Z
	?NewFloat64@BaseTypeFactory@@UBEPAVFloat64@@ABV?$basic_string@DU?$char_traits@D@std@@V?$allocator@D@2@@std@@@Z
	?NewGrid@BaseTypeFactory@@UBEPAVGrid@@ABV?$basic_string@DU?$char_traits@D@std@@V?$allocator@D@2@@std@@@Z
	?NewInt16@BaseTypeFactory@@UBEPAVInt16@@ABV?$basic_string@DU?$char_traits@D@std@@V?$allocator@D@2@@std@@@Z
	?NewInt32@BaseTypeFactory@@UBEPAVInt32@@ABV?$basic_string@DU?$char_traits@D@std@@V?$allocator@D@2@@std@@@Z
	?NewSequence@BaseTypeFactory@@UBEPAVSequence@@ABV?$basic_string@DU?$char_traits@D@std@@V?$allocator@D@2@@std@@@Z
	?NewStr@BaseTypeFactory@@UBEPAVStr@@ABV?$basic_string@DU?$char_traits@D@std@@V?$allocator@D@2@@std@@@Z
	?NewStructure@BaseTypeFactory@@UBEPAVStructure@@ABV?$basic_string@DU?$char_traits@D@std@@V?$allocator@D@2@@std@@@Z
	?NewUInt16@BaseTypeFactory@@UBEPAVUInt16@@ABV?$basic_string@DU?$char_traits@D@std@@V?$allocator@D@2@@std@@@Z
	?NewUInt32@BaseTypeFactory@@UBEPAVUInt32@@ABV?$basic_string@DU?$char_traits@D@std@@V?$allocator@D@2@@std@@@Z
	?NewUrl@BaseTypeFactory@@UBEPAVUrl@@ABV?$basic_string@DU?$char_traits@D@std@@V?$allocator@D@2@@std@@@Z
	?OK@Clause@@QAE_NXZ
	?OK@Error@@QBE_NXZ
	?OK@GSEClause@@QBE_NXZ
	?OK@InternalErr@@QAE_NXZ
	?String_to_AttrType@@YA?AW4AttrType@@ABV?$basic_string@DU?$char_traits@D@std@@V?$allocator@D@2@@std@@@Z
	?_Buy@?$vector@HV?$allocator@H@std@@@std@@IAE_NI@Z
	?_Buy@?$vector@PAUClause@@V?$allocator@PAUClause@@@std@@@std@@IAE_NI@Z
	?_Buy@?$vector@PAUentry@AttrTable@@V?$allocator@PAUentry@AttrTable@@@std@@@std@@IAE_NI@Z
	?_Buy@?$vector@PAV?$vector@HV?$allocator@H@std@@@std@@V?$allocator@PAV?$vector@HV?$allocator@H@std@@@std@@@2@@std@@IAE_NI@Z
	?_Buy@?$vector@PAV?$vector@PAV?$vector@PAVBaseType@@V?$allocator@PAVBaseType@@@std@@@std@@V?$allocator@PAV?$vector@PAVBaseType@@V?$allocator@PAVBaseType@@@std@@@std@@@2@@std@@V?$allocator@PAV?$vector@PAV?$vector@PAVBaseType@@V?$allocator@PAVBaseType@@@std@@@std@@V?$allocator@PAV?$vector@PAVBaseType@@V?$allocator@PAVBaseType@@@std@@@std@@@2@@std@@@2@@std@@IAE_NI@Z
	?_Buy@?$vector@PAV?$vector@PAVBaseType@@V?$allocator@PAVBaseType@@@std@@@std@@V?$allocator@PAV?$vector@PAVBaseType@@V?$allocator@PAVBaseType@@@std@@@std@@@2@@std@@IAE_NI@Z
	?_Buy@?$vector@PAVAttrTable@@V?$allocator@PAVAttrTable@@@std@@@std@@IAE_NI@Z
	?_Buy@?$vector@PAVBaseType@@V?$allocator@PAVBaseType@@@std@@@std@@IAE_NI@Z
	?_Buy@?$vector@PAVGSEClause@@V?$allocator@PAVGSEClause@@@std@@@std@@IAE_NI@Z
	?_Buy@?$vector@PAVrvalue@@V?$allocator@PAVrvalue@@@std@@@std@@IAE_NI@Z
	?_Buy@?$vector@Udimension@Array@@V?$allocator@Udimension@Array@@@std@@@std@@IAE_NI@Z
	?_Buy@?$vector@V?$basic_string@DU?$char_traits@D@std@@V?$allocator@D@2@@std@@V?$allocator@V?$basic_string@DU?$char_traits@D@std@@V?$allocator@D@2@@std@@@2@@std@@IAE_NI@Z
	?_Buynode@?$_Tree@V?$_Tmap_traits@V?$basic_string@DU?$char_traits@D@std@@V?$allocator@D@2@@std@@V12@U?$less@V?$basic_string@DU?$char_traits@D@std@@V?$allocator@D@2@@std@@@2@V?$allocator@U?$pair@$$CBV?$basic_string@DU?$char_traits@D@std@@V?$allocator@D@2@@std@@V12@@std@@@2@$0A@@std@@@std@@IAEPAU_Node@?$_Tree_nod@V?$_Tmap_traits@V?$basic_string@DU?$char_traits@D@std@@V?$allocator@D@2@@std@@V12@U?$less@V?$basic_string@DU?$char_traits@D@std@@V?$allocator@D@2@@std@@@2@V?$allocator@U?$pair@$$CBV?$basic_string@DU?$char_traits@D@std@@V?$allocator@D@2@@std@@V12@@std@@@2@$0A@@std@@@2@PAU342@00ABU?$pair@$$CBV?$basic_string@DU?$char_traits@D@std@@V?$allocator@D@2@@std@@V12@@2@D@Z
	?_Buynode@?$_Tree@V?$_Tset_traits@V?$basic_string@DU?$char_traits@D@std@@V?$allocator@D@2@@std@@U?$less@V?$basic_string@DU?$char_traits@D@std@@V?$allocator@D@2@@std@@@2@V?$allocator@V?$basic_string@DU?$char_traits@D@std@@V?$allocator@D@2@@std@@@2@$0A@@std@@@std@@IAEPAU_Node@?$_Tree_nod@V?$_Tset_traits@V?$basic_string@DU?$char_traits@D@std@@V?$allocator@D@2@@std@@U?$less@V?$basic_string@DU?$char_traits@D@std@@V?$allocator@D@2@@std@@@2@V?$allocator@V?$basic_string@DU?$char_traits@D@std@@V?$allocator@D@2@@std@@@2@$0A@@std@@@2@PAU342@00ABV?$basic_string@DU?$char_traits@D@std@@V?$allocator@D@2@@2@D@Z
	?_Buynode@?$_Tree@V?$_Tset_traits@V?$basic_string@DU?$char_traits@D@std@@V?$allocator@D@2@@std@@U?$less@V?$basic_string@DU?$char_traits@D@std@@V?$allocator@D@2@@std@@@2@V?$allocator@V?$basic_string@DU?$char_traits@D@std@@V?$allocator@D@2@@std@@@2@$0A@@std@@@std@@IAEPAU_Node@?$_Tree_nod@V?$_Tset_traits@V?$basic_string@DU?$char_traits@D@std@@V?$allocator@D@2@@std@@U?$less@V?$basic_string@DU?$char_traits@D@std@@V?$allocator@D@2@@std@@@2@V?$allocator@V?$basic_string@DU?$char_traits@D@std@@V?$allocator@D@2@@std@@@2@$0A@@std@@@2@XZ
	?_Buynode@?$list@Ufunction@ConstraintEvaluator@@V?$allocator@Ufunction@ConstraintEvaluator@@@std@@@std@@IAEPAU_Node@?$_List_nod@Ufunction@ConstraintEvaluator@@V?$allocator@Ufunction@ConstraintEvaluator@@@std@@@2@PAU342@0ABUfunction@ConstraintEvaluator@@@Z
	?_Buynode@?$list@Ufunction@ConstraintEvaluator@@V?$allocator@Ufunction@ConstraintEvaluator@@@std@@@std@@IAEPAU_Node@?$_List_nod@Ufunction@ConstraintEvaluator@@V?$allocator@Ufunction@ConstraintEvaluator@@@std@@@2@XZ
	?_Checked_iterator_base@?$_Vector_const_iterator@PAV?$vector@PAVBaseType@@V?$allocator@PAVBaseType@@@std@@@std@@V?$allocator@PAV?$vector@PAVBaseType@@V?$allocator@PAVBaseType@@@std@@@std@@@2@@std@@QBEPBQAV?$vector@PAVBaseType@@V?$allocator@PAVBaseType@@@std@@@2@XZ
	?_Checked_iterator_base@?$_Vector_const_iterator@PAVBaseType@@V?$allocator@PAVBaseType@@@std@@@std@@QBEPBQAVBaseType@@XZ
	?_Checked_iterator_base@?$_Vector_const_iterator@PAVGSEClause@@V?$allocator@PAVGSEClause@@@std@@@std@@QBEPBQAVGSEClause@@XZ
	?_Checked_iterator_base@?$_Vector_const_iterator@V?$basic_string@DU?$char_traits@D@std@@V?$allocator@D@2@@std@@V?$allocator@V?$basic_string@DU?$char_traits@D@std@@V?$allocator@D@2@@std@@@2@@std@@QBEPBV?$basic_string@DU?$char_traits@D@std@@V?$allocator@D@2@@2@XZ
	?_Checked_iterator_base@?$_Vector_iterator@PAV?$vector@PAVBaseType@@V?$allocator@PAVBaseType@@@std@@@std@@V?$allocator@PAV?$vector@PAVBaseType@@V?$allocator@PAVBaseType@@@std@@@std@@@2@@std@@QBEPAPAV?$vector@PAVBaseType@@V?$allocator@PAVBaseType@@@std@@@2@XZ
	?_Checked_iterator_base@?$_Vector_iterator@PAVBaseType@@V?$allocator@PAVBaseType@@@std@@@std@@QBEPAPAVBaseType@@XZ
	?_Checked_iterator_base@?$_Vector_iterator@PAVrvalue@@V?$allocator@PAVrvalue@@@std@@@std@@QBEPAPAVrvalue@@XZ
	?_Checked_iterator_base@?$_Vector_iterator@Udimension@Array@@V?$allocator@Udimension@Array@@@std@@@std@@QBEPAUdimension@Array@@XZ
	?_Checked_iterator_base@?$_Vector_iterator@V?$basic_string@DU?$char_traits@D@std@@V?$allocator@D@2@@std@@V?$allocator@V?$basic_string@DU?$char_traits@D@std@@V?$allocator@D@2@@std@@@2@@std@@QBEPAV?$basic_string@DU?$char_traits@D@std@@V?$allocator@D@2@@2@XZ
	?_Color@?$_Tree@V?$_Tmap_traits@V?$basic_string@DU?$char_traits@D@std@@V?$allocator@D@2@@std@@V12@U?$less@V?$basic_string@DU?$char_traits@D@std@@V?$allocator@D@2@@std@@@2@V?$allocator@U?$pair@$$CBV?$basic_string@DU?$char_traits@D@std@@V?$allocator@D@2@@std@@V12@@std@@@2@$0A@@std@@@std@@KAAADPAU_Node@?$_Tree_nod@V?$_Tmap_traits@V?$basic_string@DU?$char_traits@D@std@@V?$allocator@D@2@@std@@V12@U?$less@V?$basic_string@DU?$char_traits@D@std@@V?$allocator@D@2@@std@@@2@V?$allocator@U?$pair@$$CBV?$basic_string@DU?$char_traits@D@std@@V?$allocator@D@2@@std@@V12@@std@@@2@$0A@@std@@@2@@Z
	?_Color@?$_Tree@V?$_Tset_traits@V?$basic_string@DU?$char_traits@D@std@@V?$allocator@D@2@@std@@U?$less@V?$basic_string@DU?$char_traits@D@std@@V?$allocator@D@2@@std@@@2@V?$allocator@V?$basic_string@DU?$char_traits@D@std@@V?$allocator@D@2@@std@@@2@$0A@@std@@@std@@KAAADPAU_Node@?$_Tree_nod@V?$_Tset_traits@V?$basic_string@DU?$char_traits@D@std@@V?$allocator@D@2@@std@@U?$less@V?$basic_string@DU?$char_traits@D@std@@V?$allocator@D@2@@std@@@2@V?$allocator@V?$basic_string@DU?$char_traits@D@std@@V?$allocator@D@2@@std@@@2@$0A@@std@@@2@@Z
	?_Construct_n@?$vector@PAVBaseType@@V?$allocator@PAVBaseType@@@std@@@std@@QAEXIABQAVBaseType@@@Z
	?_Construct_n@?$vector@V?$basic_string@DU?$char_traits@D@std@@V?$allocator@D@2@@std@@V?$allocator@V?$basic_string@DU?$char_traits@D@std@@V?$allocator@D@2@@std@@@2@@std@@QAEXIABV?$basic_string@DU?$char_traits@D@std@@V?$allocator@D@2@@2@@Z
	?_Copy@?$_Tree@V?$_Tset_traits@V?$basic_string@DU?$char_traits@D@std@@V?$allocator@D@2@@std@@U?$less@V?$basic_string@DU?$char_traits@D@std@@V?$allocator@D@2@@std@@@2@V?$allocator@V?$basic_string@DU?$char_traits@D@std@@V?$allocator@D@2@@std@@@2@$0A@@std@@@std@@IAEPAU_Node@?$_Tree_nod@V?$_Tset_traits@V?$basic_string@DU?$char_traits@D@std@@V?$allocator@D@2@@std@@U?$less@V?$basic_string@DU?$char_traits@D@std@@V?$allocator@D@2@@std@@@2@V?$allocator@V?$basic_string@DU?$char_traits@D@std@@V?$allocator@D@2@@std@@@2@$0A@@std@@@2@PAU342@0@Z
	?_Copy@?$_Tree@V?$_Tset_traits@V?$basic_string@DU?$char_traits@D@std@@V?$allocator@D@2@@std@@U?$less@V?$basic_string@DU?$char_traits@D@std@@V?$allocator@D@2@@std@@@2@V?$allocator@V?$basic_string@DU?$char_traits@D@std@@V?$allocator@D@2@@std@@@2@$0A@@std@@@std@@IAEXABV12@@Z
	?_Dec@const_iterator@?$_Tree@V?$_Tmap_traits@V?$basic_string@DU?$char_traits@D@std@@V?$allocator@D@2@@std@@V12@U?$less@V?$basic_string@DU?$char_traits@D@std@@V?$allocator@D@2@@std@@@2@V?$allocator@U?$pair@$$CBV?$basic_string@DU?$char_traits@D@std@@V?$allocator@D@2@@std@@V12@@std@@@2@$0A@@std@@@std@@QAEXXZ
	?_Dec@const_iterator@?$_Tree@V?$_Tset_traits@V?$basic_string@DU?$char_traits@D@std@@V?$allocator@D@2@@std@@U?$less@V?$basic_string@DU?$char_traits@D@std@@V?$allocator@D@2@@std@@@2@V?$allocator@V?$basic_string@DU?$char_traits@D@std@@V?$allocator@D@2@@std@@@2@$0A@@std@@@std@@QAEXXZ
	?_Destroy@?$vector@HV?$allocator@H@std@@@std@@IAEXPAH0@Z
	?_Destroy@?$vector@PAUClause@@V?$allocator@PAUClause@@@std@@@std@@IAEXPAPAUClause@@0@Z
	?_Destroy@?$vector@PAUentry@AttrTable@@V?$allocator@PAUentry@AttrTable@@@std@@@std@@IAEXPAPAUentry@AttrTable@@0@Z
	?_Destroy@?$vector@PAV?$vector@HV?$allocator@H@std@@@std@@V?$allocator@PAV?$vector@HV?$allocator@H@std@@@std@@@2@@std@@IAEXPAPAV?$vector@HV?$allocator@H@std@@@2@0@Z
	?_Destroy@?$vector@PAV?$vector@PAV?$vector@PAVBaseType@@V?$allocator@PAVBaseType@@@std@@@std@@V?$allocator@PAV?$vector@PAVBaseType@@V?$allocator@PAVBaseType@@@std@@@std@@@2@@std@@V?$allocator@PAV?$vector@PAV?$vector@PAVBaseType@@V?$allocator@PAVBaseType@@@std@@@std@@V?$allocator@PAV?$vector@PAVBaseType@@V?$allocator@PAVBaseType@@@std@@@std@@@2@@std@@@2@@std@@IAEXPAPAV?$vector@PAV?$vector@PAVBaseType@@V?$allocator@PAVBaseType@@@std@@@std@@V?$allocator@PAV?$vector@PAVBaseType@@V?$allocator@PAVBaseType@@@std@@@std@@@2@@2@0@Z
	?_Destroy@?$vector@PAV?$vector@PAVBaseType@@V?$allocator@PAVBaseType@@@std@@@std@@V?$allocator@PAV?$vector@PAVBaseType@@V?$allocator@PAVBaseType@@@std@@@std@@@2@@std@@IAEXPAPAV?$vector@PAVBaseType@@V?$allocator@PAVBaseType@@@std@@@2@0@Z
	?_Destroy@?$vector@PAVAttrTable@@V?$allocator@PAVAttrTable@@@std@@@std@@IAEXPAPAVAttrTable@@0@Z
	?_Destroy@?$vector@PAVBaseType@@V?$allocator@PAVBaseType@@@std@@@std@@IAEXPAPAVBaseType@@0@Z
	?_Destroy@?$vector@PAVGSEClause@@V?$allocator@PAVGSEClause@@@std@@@std@@IAEXPAPAVGSEClause@@0@Z
	?_Destroy@?$vector@PAVrvalue@@V?$allocator@PAVrvalue@@@std@@@std@@IAEXPAPAVrvalue@@0@Z
	?_Destroy@?$vector@Udimension@Array@@V?$allocator@Udimension@Array@@@std@@@std@@IAEXPAUdimension@Array@@0@Z
	?_Destroy@?$vector@V?$basic_string@DU?$char_traits@D@std@@V?$allocator@D@2@@std@@V?$allocator@V?$basic_string@DU?$char_traits@D@std@@V?$allocator@D@2@@std@@@2@@std@@IAEXPAV?$basic_string@DU?$char_traits@D@std@@V?$allocator@D@2@@2@0@Z
	?_EEM_DS@?$deque@PAVAttrTable@@V?$allocator@PAVAttrTable@@@std@@@std@@2HB
	?_EEM_DS@?$deque@PAVBaseType@@V?$allocator@PAVBaseType@@@std@@@std@@2HB
	?_EEM_DS@?$deque@W4ParseState@DDXParser@@V?$allocator@W4ParseState@DDXParser@@@std@@@std@@2HB
	?_Erase@?$_Tree@V?$_Tmap_traits@V?$basic_string@DU?$char_traits@D@std@@V?$allocator@D@2@@std@@V12@U?$less@V?$basic_string@DU?$char_traits@D@std@@V?$allocator@D@2@@std@@@2@V?$allocator@U?$pair@$$CBV?$basic_string@DU?$char_traits@D@std@@V?$allocator@D@2@@std@@V12@@std@@@2@$0A@@std@@@std@@IAEXPAU_Node@?$_Tree_nod@V?$_Tmap_traits@V?$basic_string@DU?$char_traits@D@std@@V?$allocator@D@2@@std@@V12@U?$less@V?$basic_string@DU?$char_traits@D@std@@V?$allocator@D@2@@std@@@2@V?$allocator@U?$pair@$$CBV?$basic_string@DU?$char_traits@D@std@@V?$allocator@D@2@@std@@V12@@std@@@2@$0A@@std@@@2@@Z
	?_Erase@?$_Tree@V?$_Tset_traits@V?$basic_string@DU?$char_traits@D@std@@V?$allocator@D@2@@std@@U?$less@V?$basic_string@DU?$char_traits@D@std@@V?$allocator@D@2@@std@@@2@V?$allocator@V?$basic_string@DU?$char_traits@D@std@@V?$allocator@D@2@@std@@@2@$0A@@std@@@std@@IAEXPAU_Node@?$_Tree_nod@V?$_Tset_traits@V?$basic_string@DU?$char_traits@D@std@@V?$allocator@D@2@@std@@U?$less@V?$basic_string@DU?$char_traits@D@std@@V?$allocator@D@2@@std@@@2@V?$allocator@V?$basic_string@DU?$char_traits@D@std@@V?$allocator@D@2@@std@@@2@$0A@@std@@@2@@Z
	?_Growmap@?$deque@PAVAttrTable@@V?$allocator@PAVAttrTable@@@std@@@std@@IAEXI@Z
	?_Growmap@?$deque@PAVBaseType@@V?$allocator@PAVBaseType@@@std@@@std@@IAEXI@Z
	?_Growmap@?$deque@W4ParseState@DDXParser@@V?$allocator@W4ParseState@DDXParser@@@std@@@std@@IAEXI@Z
	?_Hardfail@?$_Iosb@H@std@@2W4_Iostate@12@B
	?_Inc@const_iterator@?$_Tree@V?$_Tmap_traits@V?$basic_string@DU?$char_traits@D@std@@V?$allocator@D@2@@std@@V12@U?$less@V?$basic_string@DU?$char_traits@D@std@@V?$allocator@D@2@@std@@@2@V?$allocator@U?$pair@$$CBV?$basic_string@DU?$char_traits@D@std@@V?$allocator@D@2@@std@@V12@@std@@@2@$0A@@std@@@std@@QAEXXZ
	?_Inc@const_iterator@?$_Tree@V?$_Tset_traits@V?$basic_string@DU?$char_traits@D@std@@V?$allocator@D@2@@std@@U?$less@V?$basic_string@DU?$char_traits@D@std@@V?$allocator@D@2@@std@@@2@V?$allocator@V?$basic_string@DU?$char_traits@D@std@@V?$allocator@D@2@@std@@@2@$0A@@std@@@std@@QAEXXZ
	?_Incsize@?$list@Ufunction@ConstraintEvaluator@@V?$allocator@Ufunction@ConstraintEvaluator@@@std@@@std@@IAEXI@Z
	?_Init@?$_Tree@V?$_Tset_traits@V?$basic_string@DU?$char_traits@D@std@@V?$allocator@D@2@@std@@U?$less@V?$basic_string@DU?$char_traits@D@std@@V?$allocator@D@2@@std@@@2@V?$allocator@V?$basic_string@DU?$char_traits@D@std@@V?$allocator@D@2@@std@@@2@$0A@@std@@@std@@IAEXXZ
	?_Insert@?$_Tree@V?$_Tmap_traits@V?$basic_string@DU?$char_traits@D@std@@V?$allocator@D@2@@std@@V12@U?$less@V?$basic_string@DU?$char_traits@D@std@@V?$allocator@D@2@@std@@@2@V?$allocator@U?$pair@$$CBV?$basic_string@DU?$char_traits@D@std@@V?$allocator@D@2@@std@@V12@@std@@@2@$0A@@std@@@std@@IAE?AViterator@12@_NPAU_Node@?$_Tree_nod@V?$_Tmap_traits@V?$basic_string@DU?$char_traits@D@std@@V?$allocator@D@2@@std@@V12@U?$less@V?$basic_string@DU?$char_traits@D@std@@V?$allocator@D@2@@std@@@2@V?$allocator@U?$pair@$$CBV?$basic_string@DU?$char_traits@D@std@@V?$allocator@D@2@@std@@V12@@std@@@2@$0A@@std@@@2@ABU?$pair@$$CBV?$basic_string@DU?$char_traits@D@std@@V?$allocator@D@2@@std@@V12@@2@@Z
	?_Insert@?$_Tree@V?$_Tset_traits@V?$basic_string@DU?$char_traits@D@std@@V?$allocator@D@2@@std@@U?$less@V?$basic_string@DU?$char_traits@D@std@@V?$allocator@D@2@@std@@@2@V?$allocator@V?$basic_string@DU?$char_traits@D@std@@V?$allocator@D@2@@std@@@2@$0A@@std@@@std@@IAE?AViterator@12@_NPAU_Node@?$_Tree_nod@V?$_Tset_traits@V?$basic_string@DU?$char_traits@D@std@@V?$allocator@D@2@@std@@U?$less@V?$basic_string@DU?$char_traits@D@std@@V?$allocator@D@2@@std@@@2@V?$allocator@V?$basic_string@DU?$char_traits@D@std@@V?$allocator@D@2@@std@@@2@$0A@@std@@@2@ABV?$basic_string@DU?$char_traits@D@std@@V?$allocator@D@2@@2@@Z
	?_Insert@?$list@Ufunction@ConstraintEvaluator@@V?$allocator@Ufunction@ConstraintEvaluator@@@std@@@std@@QAEXV?$_Iterator@$00@12@ABUfunction@ConstraintEvaluator@@@Z
	?_Insert_n@?$vector@HV?$allocator@H@std@@@std@@IAEXV?$_Vector_iterator@HV?$allocator@H@std@@@2@IABH@Z
	?_Insert_n@?$vector@PAUClause@@V?$allocator@PAUClause@@@std@@@std@@IAEXV?$_Vector_iterator@PAUClause@@V?$allocator@PAUClause@@@std@@@2@IABQAUClause@@@Z
	?_Insert_n@?$vector@PAUentry@AttrTable@@V?$allocator@PAUentry@AttrTable@@@std@@@std@@IAEXV?$_Vector_iterator@PAUentry@AttrTable@@V?$allocator@PAUentry@AttrTable@@@std@@@2@IABQAUentry@AttrTable@@@Z
	?_Insert_n@?$vector@PAV?$vector@HV?$allocator@H@std@@@std@@V?$allocator@PAV?$vector@HV?$allocator@H@std@@@std@@@2@@std@@IAEXV?$_Vector_iterator@PAV?$vector@HV?$allocator@H@std@@@std@@V?$allocator@PAV?$vector@HV?$allocator@H@std@@@std@@@2@@2@IABQAV?$vector@HV?$allocator@H@std@@@2@@Z
	?_Insert_n@?$vector@PAV?$vector@PAV?$vector@PAVBaseType@@V?$allocator@PAVBaseType@@@std@@@std@@V?$allocator@PAV?$vector@PAVBaseType@@V?$allocator@PAVBaseType@@@std@@@std@@@2@@std@@V?$allocator@PAV?$vector@PAV?$vector@PAVBaseType@@V?$allocator@PAVBaseType@@@std@@@std@@V?$allocator@PAV?$vector@PAVBaseType@@V?$allocator@PAVBaseType@@@std@@@std@@@2@@std@@@2@@std@@IAEXV?$_Vector_iterator@PAV?$vector@PAV?$vector@PAVBaseType@@V?$allocator@PAVBaseType@@@std@@@std@@V?$allocator@PAV?$vector@PAVBaseType@@V?$allocator@PAVBaseType@@@std@@@std@@@2@@std@@V?$allocator@PAV?$vector@PAV?$vector@PAVBaseType@@V?$allocator@PAVBaseType@@@std@@@std@@V?$allocator@PAV?$vector@PAVBaseType@@V?$allocator@PAVBaseType@@@std@@@std@@@2@@std@@@2@@2@IABQAV?$vector@PAV?$vector@PAVBaseType@@V?$allocator@PAVBaseType@@@std@@@std@@V?$allocator@PAV?$vector@PAVBaseType@@V?$allocator@PAVBaseType@@@std@@@std@@@2@@2@@Z
	?_Insert_n@?$vector@PAV?$vector@PAVBaseType@@V?$allocator@PAVBaseType@@@std@@@std@@V?$allocator@PAV?$vector@PAVBaseType@@V?$allocator@PAVBaseType@@@std@@@std@@@2@@std@@IAEXV?$_Vector_iterator@PAV?$vector@PAVBaseType@@V?$allocator@PAVBaseType@@@std@@@std@@V?$allocator@PAV?$vector@PAVBaseType@@V?$allocator@PAVBaseType@@@std@@@std@@@2@@2@IABQAV?$vector@PAVBaseType@@V?$allocator@PAVBaseType@@@std@@@2@@Z
	?_Insert_n@?$vector@PAVAttrTable@@V?$allocator@PAVAttrTable@@@std@@@std@@IAEXV?$_Vector_iterator@PAVAttrTable@@V?$allocator@PAVAttrTable@@@std@@@2@IABQAVAttrTable@@@Z
	?_Insert_n@?$vector@PAVBaseType@@V?$allocator@PAVBaseType@@@std@@@std@@IAEXV?$_Vector_iterator@PAVBaseType@@V?$allocator@PAVBaseType@@@std@@@2@IABQAVBaseType@@@Z
	?_Insert_n@?$vector@PAVGSEClause@@V?$allocator@PAVGSEClause@@@std@@@std@@IAEXV?$_Vector_iterator@PAVGSEClause@@V?$allocator@PAVGSEClause@@@std@@@2@IABQAVGSEClause@@@Z
	?_Insert_n@?$vector@PAVrvalue@@V?$allocator@PAVrvalue@@@std@@@std@@IAEXV?$_Vector_iterator@PAVrvalue@@V?$allocator@PAVrvalue@@@std@@@2@IABQAVrvalue@@@Z
	?_Insert_n@?$vector@Udimension@Array@@V?$allocator@Udimension@Array@@@std@@@std@@IAEXV?$_Vector_iterator@Udimension@Array@@V?$allocator@Udimension@Array@@@std@@@2@IABUdimension@Array@@@Z
	?_Insert_n@?$vector@V?$basic_string@DU?$char_traits@D@std@@V?$allocator@D@2@@std@@V?$allocator@V?$basic_string@DU?$char_traits@D@std@@V?$allocator@D@2@@std@@@2@@std@@IAEXV?$_Vector_iterator@V?$basic_string@DU?$char_traits@D@std@@V?$allocator@D@2@@std@@V?$allocator@V?$basic_string@DU?$char_traits@D@std@@V?$allocator@D@2@@std@@@2@@2@IABV?$basic_string@DU?$char_traits@D@std@@V?$allocator@D@2@@2@@Z
	?_Isnil@?$_Tree@V?$_Tmap_traits@V?$basic_string@DU?$char_traits@D@std@@V?$allocator@D@2@@std@@V12@U?$less@V?$basic_string@DU?$char_traits@D@std@@V?$allocator@D@2@@std@@@2@V?$allocator@U?$pair@$$CBV?$basic_string@DU?$char_traits@D@std@@V?$allocator@D@2@@std@@V12@@std@@@2@$0A@@std@@@std@@KAAADPAU_Node@?$_Tree_nod@V?$_Tmap_traits@V?$basic_string@DU?$char_traits@D@std@@V?$allocator@D@2@@std@@V12@U?$less@V?$basic_string@DU?$char_traits@D@std@@V?$allocator@D@2@@std@@@2@V?$allocator@U?$pair@$$CBV?$basic_string@DU?$char_traits@D@std@@V?$allocator@D@2@@std@@V12@@std@@@2@$0A@@std@@@2@@Z
	?_Isnil@?$_Tree@V?$_Tset_traits@V?$basic_string@DU?$char_traits@D@std@@V?$allocator@D@2@@std@@U?$less@V?$basic_string@DU?$char_traits@D@std@@V?$allocator@D@2@@std@@@2@V?$allocator@V?$basic_string@DU?$char_traits@D@std@@V?$allocator@D@2@@std@@@2@$0A@@std@@@std@@KAAADPAU_Node@?$_Tree_nod@V?$_Tset_traits@V?$basic_string@DU?$char_traits@D@std@@V?$allocator@D@2@@std@@U?$less@V?$basic_string@DU?$char_traits@D@std@@V?$allocator@D@2@@std@@@2@V?$allocator@V?$basic_string@DU?$char_traits@D@std@@V?$allocator@D@2@@std@@@2@$0A@@std@@@2@@Z
	?_Key@?$_Tree@V?$_Tmap_traits@V?$basic_string@DU?$char_traits@D@std@@V?$allocator@D@2@@std@@V12@U?$less@V?$basic_string@DU?$char_traits@D@std@@V?$allocator@D@2@@std@@@2@V?$allocator@U?$pair@$$CBV?$basic_string@DU?$char_traits@D@std@@V?$allocator@D@2@@std@@V12@@std@@@2@$0A@@std@@@std@@KAABV?$basic_string@DU?$char_traits@D@std@@V?$allocator@D@2@@2@PAU_Node@?$_Tree_nod@V?$_Tmap_traits@V?$basic_string@DU?$char_traits@D@std@@V?$allocator@D@2@@std@@V12@U?$less@V?$basic_string@DU?$char_traits@D@std@@V?$allocator@D@2@@std@@@2@V?$allocator@U?$pair@$$CBV?$basic_string@DU?$char_traits@D@std@@V?$allocator@D@2@@std@@V12@@std@@@2@$0A@@std@@@2@@Z
	?_Key@?$_Tree@V?$_Tset_traits@V?$basic_string@DU?$char_traits@D@std@@V?$allocator@D@2@@std@@U?$less@V?$basic_string@DU?$char_traits@D@std@@V?$allocator@D@2@@std@@@2@V?$allocator@V?$basic_string@DU?$char_traits@D@std@@V?$allocator@D@2@@std@@@2@$0A@@std@@@std@@KAABV?$basic_string@DU?$char_traits@D@std@@V?$allocator@D@2@@2@PAU_Node@?$_Tree_nod@V?$_Tset_traits@V?$basic_string@DU?$char_traits@D@std@@V?$allocator@D@2@@std@@U?$less@V?$basic_string@DU?$char_traits@D@std@@V?$allocator@D@2@@std@@@2@V?$allocator@V?$basic_string@DU?$char_traits@D@std@@V?$allocator@D@2@@std@@@2@$0A@@std@@@2@@Z
	?_Kfn@?$_Tmap_traits@V?$basic_string@DU?$char_traits@D@std@@V?$allocator@D@2@@std@@V12@U?$less@V?$basic_string@DU?$char_traits@D@std@@V?$allocator@D@2@@std@@@2@V?$allocator@U?$pair@$$CBV?$basic_string@DU?$char_traits@D@std@@V?$allocator@D@2@@std@@V12@@std@@@2@$0A@@std@@SAABV?$basic_string@DU?$char_traits@D@std@@V?$allocator@D@2@@2@ABU?$pair@$$CBV?$basic_string@DU?$char_traits@D@std@@V?$allocator@D@2@@std@@V12@@2@@Z
	?_Kfn@?$_Tset_traits@V?$basic_string@DU?$char_traits@D@std@@V?$allocator@D@2@@std@@U?$less@V?$basic_string@DU?$char_traits@D@std@@V?$allocator@D@2@@std@@@2@V?$allocator@V?$basic_string@DU?$char_traits@D@std@@V?$allocator@D@2@@std@@@2@$0A@@std@@SAABV?$basic_string@DU?$char_traits@D@std@@V?$allocator@D@2@@2@ABV32@@Z
	?_Lbound@?$_Tree@V?$_Tmap_traits@V?$basic_string@DU?$char_traits@D@std@@V?$allocator@D@2@@std@@V12@U?$less@V?$basic_string@DU?$char_traits@D@std@@V?$allocator@D@2@@std@@@2@V?$allocator@U?$pair@$$CBV?$basic_string@DU?$char_traits@D@std@@V?$allocator@D@2@@std@@V12@@std@@@2@$0A@@std@@@std@@IBEPAU_Node@?$_Tree_nod@V?$_Tmap_traits@V?$basic_string@DU?$char_traits@D@std@@V?$allocator@D@2@@std@@V12@U?$less@V?$basic_string@DU?$char_traits@D@std@@V?$allocator@D@2@@std@@@2@V?$allocator@U?$pair@$$CBV?$basic_string@DU?$char_traits@D@std@@V?$allocator@D@2@@std@@V12@@std@@@2@$0A@@std@@@2@ABV?$basic_string@DU?$char_traits@D@std@@V?$allocator@D@2@@2@@Z
	?_Lbound@?$_Tree@V?$_Tset_traits@V?$basic_string@DU?$char_traits@D@std@@V?$allocator@D@2@@std@@U?$less@V?$basic_string@DU?$char_traits@D@std@@V?$allocator@D@2@@std@@@2@V?$allocator@V?$basic_string@DU?$char_traits@D@std@@V?$allocator@D@2@@std@@@2@$0A@@std@@@std@@IBEPAU_Node@?$_Tree_nod@V?$_Tset_traits@V?$basic_string@DU?$char_traits@D@std@@V?$allocator@D@2@@std@@U?$less@V?$basic_string@DU?$char_traits@D@std@@V?$allocator@D@2@@std@@@2@V?$allocator@V?$basic_string@DU?$char_traits@D@std@@V?$allocator@D@2@@std@@@2@$0A@@std@@@2@ABV?$basic_string@DU?$char_traits@D@std@@V?$allocator@D@2@@2@@Z
	?_Left@?$_Tree@V?$_Tmap_traits@V?$basic_string@DU?$char_traits@D@std@@V?$allocator@D@2@@std@@V12@U?$less@V?$basic_string@DU?$char_traits@D@std@@V?$allocator@D@2@@std@@@2@V?$allocator@U?$pair@$$CBV?$basic_string@DU?$char_traits@D@std@@V?$allocator@D@2@@std@@V12@@std@@@2@$0A@@std@@@std@@KAAAPAU_Node@?$_Tree_nod@V?$_Tmap_traits@V?$basic_string@DU?$char_traits@D@std@@V?$allocator@D@2@@std@@V12@U?$less@V?$basic_string@DU?$char_traits@D@std@@V?$allocator@D@2@@std@@@2@V?$allocator@U?$pair@$$CBV?$basic_string@DU?$char_traits@D@std@@V?$allocator@D@2@@std@@V12@@std@@@2@$0A@@std@@@2@PAU342@@Z
	?_Left@?$_Tree@V?$_Tset_traits@V?$basic_string@DU?$char_traits@D@std@@V?$allocator@D@2@@std@@U?$less@V?$basic_string@DU?$char_traits@D@std@@V?$allocator@D@2@@std@@@2@V?$allocator@V?$basic_string@DU?$char_traits@D@std@@V?$allocator@D@2@@std@@@2@$0A@@std@@@std@@KAAAPAU_Node@?$_Tree_nod@V?$_Tset_traits@V?$basic_string@DU?$char_traits@D@std@@V?$allocator@D@2@@std@@U?$less@V?$basic_string@DU?$char_traits@D@std@@V?$allocator@D@2@@std@@@2@V?$allocator@V?$basic_string@DU?$char_traits@D@std@@V?$allocator@D@2@@std@@@2@$0A@@std@@@2@PAU342@@Z
	?_Lmost@?$_Tree@V?$_Tmap_traits@V?$basic_string@DU?$char_traits@D@std@@V?$allocator@D@2@@std@@V12@U?$less@V?$basic_string@DU?$char_traits@D@std@@V?$allocator@D@2@@std@@@2@V?$allocator@U?$pair@$$CBV?$basic_string@DU?$char_traits@D@std@@V?$allocator@D@2@@std@@V12@@std@@@2@$0A@@std@@@std@@IBEAAPAU_Node@?$_Tree_nod@V?$_Tmap_traits@V?$basic_string@DU?$char_traits@D@std@@V?$allocator@D@2@@std@@V12@U?$less@V?$basic_string@DU?$char_traits@D@std@@V?$allocator@D@2@@std@@@2@V?$allocator@U?$pair@$$CBV?$basic_string@DU?$char_traits@D@std@@V?$allocator@D@2@@std@@V12@@std@@@2@$0A@@std@@@2@XZ
	?_Lmost@?$_Tree@V?$_Tset_traits@V?$basic_string@DU?$char_traits@D@std@@V?$allocator@D@2@@std@@U?$less@V?$basic_string@DU?$char_traits@D@std@@V?$allocator@D@2@@std@@@2@V?$allocator@V?$basic_string@DU?$char_traits@D@std@@V?$allocator@D@2@@std@@@2@$0A@@std@@@std@@IBEAAPAU_Node@?$_Tree_nod@V?$_Tset_traits@V?$basic_string@DU?$char_traits@D@std@@V?$allocator@D@2@@std@@U?$less@V?$basic_string@DU?$char_traits@D@std@@V?$allocator@D@2@@std@@@2@V?$allocator@V?$basic_string@DU?$char_traits@D@std@@V?$allocator@D@2@@std@@@2@$0A@@std@@@2@XZ
	?_Lrotate@?$_Tree@V?$_Tmap_traits@V?$basic_string@DU?$char_traits@D@std@@V?$allocator@D@2@@std@@V12@U?$less@V?$basic_string@DU?$char_traits@D@std@@V?$allocator@D@2@@std@@@2@V?$allocator@U?$pair@$$CBV?$basic_string@DU?$char_traits@D@std@@V?$allocator@D@2@@std@@V12@@std@@@2@$0A@@std@@@std@@IAEXPAU_Node@?$_Tree_nod@V?$_Tmap_traits@V?$basic_string@DU?$char_traits@D@std@@V?$allocator@D@2@@std@@V12@U?$less@V?$basic_string@DU?$char_traits@D@std@@V?$allocator@D@2@@std@@@2@V?$allocator@U?$pair@$$CBV?$basic_string@DU?$char_traits@D@std@@V?$allocator@D@2@@std@@V12@@std@@@2@$0A@@std@@@2@@Z
	?_Lrotate@?$_Tree@V?$_Tset_traits@V?$basic_string@DU?$char_traits@D@std@@V?$allocator@D@2@@std@@U?$less@V?$basic_string@DU?$char_traits@D@std@@V?$allocator@D@2@@std@@@2@V?$allocator@V?$basic_string@DU?$char_traits@D@std@@V?$allocator@D@2@@std@@@2@$0A@@std@@@std@@IAEXPAU_Node@?$_Tree_nod@V?$_Tset_traits@V?$basic_string@DU?$char_traits@D@std@@V?$allocator@D@2@@std@@U?$less@V?$basic_string@DU?$char_traits@D@std@@V?$allocator@D@2@@std@@@2@V?$allocator@V?$basic_string@DU?$char_traits@D@std@@V?$allocator@D@2@@std@@@2@$0A@@std@@@2@@Z
	?_Max@?$_Tree@V?$_Tmap_traits@V?$basic_string@DU?$char_traits@D@std@@V?$allocator@D@2@@std@@V12@U?$less@V?$basic_string@DU?$char_traits@D@std@@V?$allocator@D@2@@std@@@2@V?$allocator@U?$pair@$$CBV?$basic_string@DU?$char_traits@D@std@@V?$allocator@D@2@@std@@V12@@std@@@2@$0A@@std@@@std@@KAPAU_Node@?$_Tree_nod@V?$_Tmap_traits@V?$basic_string@DU?$char_traits@D@std@@V?$allocator@D@2@@std@@V12@U?$less@V?$basic_string@DU?$char_traits@D@std@@V?$allocator@D@2@@std@@@2@V?$allocator@U?$pair@$$CBV?$basic_string@DU?$char_traits@D@std@@V?$allocator@D@2@@std@@V12@@std@@@2@$0A@@std@@@2@PAU342@@Z
	?_Max@?$_Tree@V?$_Tset_traits@V?$basic_string@DU?$char_traits@D@std@@V?$allocator@D@2@@std@@U?$less@V?$basic_string@DU?$char_traits@D@std@@V?$allocator@D@2@@std@@@2@V?$allocator@V?$basic_string@DU?$char_traits@D@std@@V?$allocator@D@2@@std@@@2@$0A@@std@@@std@@KAPAU_Node@?$_Tree_nod@V?$_Tset_traits@V?$basic_string@DU?$char_traits@D@std@@V?$allocator@D@2@@std@@U?$less@V?$basic_string@DU?$char_traits@D@std@@V?$allocator@D@2@@std@@@2@V?$allocator@V?$basic_string@DU?$char_traits@D@std@@V?$allocator@D@2@@std@@@2@$0A@@std@@@2@PAU342@@Z
	?_Min@?$_Tree@V?$_Tmap_traits@V?$basic_string@DU?$char_traits@D@std@@V?$allocator@D@2@@std@@V12@U?$less@V?$basic_string@DU?$char_traits@D@std@@V?$allocator@D@2@@std@@@2@V?$allocator@U?$pair@$$CBV?$basic_string@DU?$char_traits@D@std@@V?$allocator@D@2@@std@@V12@@std@@@2@$0A@@std@@@std@@KAPAU_Node@?$_Tree_nod@V?$_Tmap_traits@V?$basic_string@DU?$char_traits@D@std@@V?$allocator@D@2@@std@@V12@U?$less@V?$basic_string@DU?$char_traits@D@std@@V?$allocator@D@2@@std@@@2@V?$allocator@U?$pair@$$CBV?$basic_string@DU?$char_traits@D@std@@V?$allocator@D@2@@std@@V12@@std@@@2@$0A@@std@@@2@PAU342@@Z
	?_Min@?$_Tree@V?$_Tset_traits@V?$basic_string@DU?$char_traits@D@std@@V?$allocator@D@2@@std@@U?$less@V?$basic_string@DU?$char_traits@D@std@@V?$allocator@D@2@@std@@@2@V?$allocator@V?$basic_string@DU?$char_traits@D@std@@V?$allocator@D@2@@std@@@2@$0A@@std@@@std@@KAPAU_Node@?$_Tree_nod@V?$_Tset_traits@V?$basic_string@DU?$char_traits@D@std@@V?$allocator@D@2@@std@@U?$less@V?$basic_string@DU?$char_traits@D@std@@V?$allocator@D@2@@std@@@2@V?$allocator@V?$basic_string@DU?$char_traits@D@std@@V?$allocator@D@2@@std@@@2@$0A@@std@@@2@PAU342@@Z
	?_Mynode@?$_Const_iterator@$00@?$list@Ufunction@ConstraintEvaluator@@V?$allocator@Ufunction@ConstraintEvaluator@@@std@@@std@@QBEPAU_Node@?$_List_nod@Ufunction@ConstraintEvaluator@@V?$allocator@Ufunction@ConstraintEvaluator@@@std@@@3@XZ
	?_Mynode@const_iterator@?$_Tree@V?$_Tmap_traits@V?$basic_string@DU?$char_traits@D@std@@V?$allocator@D@2@@std@@V12@U?$less@V?$basic_string@DU?$char_traits@D@std@@V?$allocator@D@2@@std@@@2@V?$allocator@U?$pair@$$CBV?$basic_string@DU?$char_traits@D@std@@V?$allocator@D@2@@std@@V12@@std@@@2@$0A@@std@@@std@@QBEPAU_Node@?$_Tree_nod@V?$_Tmap_traits@V?$basic_string@DU?$char_traits@D@std@@V?$allocator@D@2@@std@@V12@U?$less@V?$basic_string@DU?$char_traits@D@std@@V?$allocator@D@2@@std@@@2@V?$allocator@U?$pair@$$CBV?$basic_string@DU?$char_traits@D@std@@V?$allocator@D@2@@std@@V12@@std@@@2@$0A@@std@@@3@XZ
	?_Mynode@const_iterator@?$_Tree@V?$_Tset_traits@V?$basic_string@DU?$char_traits@D@std@@V?$allocator@D@2@@std@@U?$less@V?$basic_string@DU?$char_traits@D@std@@V?$allocator@D@2@@std@@@2@V?$allocator@V?$basic_string@DU?$char_traits@D@std@@V?$allocator@D@2@@std@@@2@$0A@@std@@@std@@QBEPAU_Node@?$_Tree_nod@V?$_Tset_traits@V?$basic_string@DU?$char_traits@D@std@@V?$allocator@D@2@@std@@U?$less@V?$basic_string@DU?$char_traits@D@std@@V?$allocator@D@2@@std@@@2@V?$allocator@V?$basic_string@DU?$char_traits@D@std@@V?$allocator@D@2@@std@@@2@$0A@@std@@@3@XZ
	?_Myval@?$_Tree@V?$_Tmap_traits@V?$basic_string@DU?$char_traits@D@std@@V?$allocator@D@2@@std@@V12@U?$less@V?$basic_string@DU?$char_traits@D@std@@V?$allocator@D@2@@std@@@2@V?$allocator@U?$pair@$$CBV?$basic_string@DU?$char_traits@D@std@@V?$allocator@D@2@@std@@V12@@std@@@2@$0A@@std@@@std@@KAAAU?$pair@$$CBV?$basic_string@DU?$char_traits@D@std@@V?$allocator@D@2@@std@@V12@@2@PAU_Node@?$_Tree_nod@V?$_Tmap_traits@V?$basic_string@DU?$char_traits@D@std@@V?$allocator@D@2@@std@@V12@U?$less@V?$basic_string@DU?$char_traits@D@std@@V?$allocator@D@2@@std@@@2@V?$allocator@U?$pair@$$CBV?$basic_string@DU?$char_traits@D@std@@V?$allocator@D@2@@std@@V12@@std@@@2@$0A@@std@@@2@@Z
	?_Myval@?$_Tree@V?$_Tset_traits@V?$basic_string@DU?$char_traits@D@std@@V?$allocator@D@2@@std@@U?$less@V?$basic_string@DU?$char_traits@D@std@@V?$allocator@D@2@@std@@@2@V?$allocator@V?$basic_string@DU?$char_traits@D@std@@V?$allocator@D@2@@std@@@2@$0A@@std@@@std@@KAAAV?$basic_string@DU?$char_traits@D@std@@V?$allocator@D@2@@2@PAU_Node@?$_Tree_nod@V?$_Tset_traits@V?$basic_string@DU?$char_traits@D@std@@V?$allocator@D@2@@std@@U?$less@V?$basic_string@DU?$char_traits@D@std@@V?$allocator@D@2@@std@@@2@V?$allocator@V?$basic_string@DU?$char_traits@D@std@@V?$allocator@D@2@@std@@@2@$0A@@std@@@2@@Z
	?_Myval@?$list@Ufunction@ConstraintEvaluator@@V?$allocator@Ufunction@ConstraintEvaluator@@@std@@@std@@KAAAUfunction@ConstraintEvaluator@@PAU_Node@?$_List_nod@Ufunction@ConstraintEvaluator@@V?$allocator@Ufunction@ConstraintEvaluator@@@std@@@2@@Z
	?_Nextnode@?$list@Ufunction@ConstraintEvaluator@@V?$allocator@Ufunction@ConstraintEvaluator@@@std@@@std@@KAAAPAU_Node@?$_List_nod@Ufunction@ConstraintEvaluator@@V?$allocator@Ufunction@ConstraintEvaluator@@@std@@@2@PAU342@@Z
	?_Nocreate@?$_Iosb@H@std@@2W4_Openmode@12@B
	?_Noreplace@?$_Iosb@H@std@@2W4_Openmode@12@B
	?_Parent@?$_Tree@V?$_Tmap_traits@V?$basic_string@DU?$char_traits@D@std@@V?$allocator@D@2@@std@@V12@U?$less@V?$basic_string@DU?$char_traits@D@std@@V?$allocator@D@2@@std@@@2@V?$allocator@U?$pair@$$CBV?$basic_string@DU?$char_traits@D@std@@V?$allocator@D@2@@std@@V12@@std@@@2@$0A@@std@@@std@@KAAAPAU_Node@?$_Tree_nod@V?$_Tmap_traits@V?$basic_string@DU?$char_traits@D@std@@V?$allocator@D@2@@std@@V12@U?$less@V?$basic_string@DU?$char_traits@D@std@@V?$allocator@D@2@@std@@@2@V?$allocator@U?$pair@$$CBV?$basic_string@DU?$char_traits@D@std@@V?$allocator@D@2@@std@@V12@@std@@@2@$0A@@std@@@2@PAU342@@Z
	?_Parent@?$_Tree@V?$_Tset_traits@V?$basic_string@DU?$char_traits@D@std@@V?$allocator@D@2@@std@@U?$less@V?$basic_string@DU?$char_traits@D@std@@V?$allocator@D@2@@std@@@2@V?$allocator@V?$basic_string@DU?$char_traits@D@std@@V?$allocator@D@2@@std@@@2@$0A@@std@@@std@@KAAAPAU_Node@?$_Tree_nod@V?$_Tset_traits@V?$basic_string@DU?$char_traits@D@std@@V?$allocator@D@2@@std@@U?$less@V?$basic_string@DU?$char_traits@D@std@@V?$allocator@D@2@@std@@@2@V?$allocator@V?$basic_string@DU?$char_traits@D@std@@V?$allocator@D@2@@std@@@2@$0A@@std@@@2@PAU342@@Z
	?_Prevnode@?$list@Ufunction@ConstraintEvaluator@@V?$allocator@Ufunction@ConstraintEvaluator@@@std@@@std@@KAAAPAU_Node@?$_List_nod@Ufunction@ConstraintEvaluator@@V?$allocator@Ufunction@ConstraintEvaluator@@@std@@@2@PAU342@@Z
	?_Right@?$_Tree@V?$_Tmap_traits@V?$basic_string@DU?$char_traits@D@std@@V?$allocator@D@2@@std@@V12@U?$less@V?$basic_string@DU?$char_traits@D@std@@V?$allocator@D@2@@std@@@2@V?$allocator@U?$pair@$$CBV?$basic_string@DU?$char_traits@D@std@@V?$allocator@D@2@@std@@V12@@std@@@2@$0A@@std@@@std@@KAAAPAU_Node@?$_Tree_nod@V?$_Tmap_traits@V?$basic_string@DU?$char_traits@D@std@@V?$allocator@D@2@@std@@V12@U?$less@V?$basic_string@DU?$char_traits@D@std@@V?$allocator@D@2@@std@@@2@V?$allocator@U?$pair@$$CBV?$basic_string@DU?$char_traits@D@std@@V?$allocator@D@2@@std@@V12@@std@@@2@$0A@@std@@@2@PAU342@@Z
	?_Right@?$_Tree@V?$_Tset_traits@V?$basic_string@DU?$char_traits@D@std@@V?$allocator@D@2@@std@@U?$less@V?$basic_string@DU?$char_traits@D@std@@V?$allocator@D@2@@std@@@2@V?$allocator@V?$basic_string@DU?$char_traits@D@std@@V?$allocator@D@2@@std@@@2@$0A@@std@@@std@@KAAAPAU_Node@?$_Tree_nod@V?$_Tset_traits@V?$basic_string@DU?$char_traits@D@std@@V?$allocator@D@2@@std@@U?$less@V?$basic_string@DU?$char_traits@D@std@@V?$allocator@D@2@@std@@@2@V?$allocator@V?$basic_string@DU?$char_traits@D@std@@V?$allocator@D@2@@std@@@2@$0A@@std@@@2@PAU342@@Z
	?_Rmost@?$_Tree@V?$_Tmap_traits@V?$basic_string@DU?$char_traits@D@std@@V?$allocator@D@2@@std@@V12@U?$less@V?$basic_string@DU?$char_traits@D@std@@V?$allocator@D@2@@std@@@2@V?$allocator@U?$pair@$$CBV?$basic_string@DU?$char_traits@D@std@@V?$allocator@D@2@@std@@V12@@std@@@2@$0A@@std@@@std@@IBEAAPAU_Node@?$_Tree_nod@V?$_Tmap_traits@V?$basic_string@DU?$char_traits@D@std@@V?$allocator@D@2@@std@@V12@U?$less@V?$basic_string@DU?$char_traits@D@std@@V?$allocator@D@2@@std@@@2@V?$allocator@U?$pair@$$CBV?$basic_string@DU?$char_traits@D@std@@V?$allocator@D@2@@std@@V12@@std@@@2@$0A@@std@@@2@XZ
	?_Rmost@?$_Tree@V?$_Tset_traits@V?$basic_string@DU?$char_traits@D@std@@V?$allocator@D@2@@std@@U?$less@V?$basic_string@DU?$char_traits@D@std@@V?$allocator@D@2@@std@@@2@V?$allocator@V?$basic_string@DU?$char_traits@D@std@@V?$allocator@D@2@@std@@@2@$0A@@std@@@std@@IBEAAPAU_Node@?$_Tree_nod@V?$_Tset_traits@V?$basic_string@DU?$char_traits@D@std@@V?$allocator@D@2@@std@@U?$less@V?$basic_string@DU?$char_traits@D@std@@V?$allocator@D@2@@std@@@2@V?$allocator@V?$basic_string@DU?$char_traits@D@std@@V?$allocator@D@2@@std@@@2@$0A@@std@@@2@XZ
	?_Root@?$_Tree@V?$_Tmap_traits@V?$basic_string@DU?$char_traits@D@std@@V?$allocator@D@2@@std@@V12@U?$less@V?$basic_string@DU?$char_traits@D@std@@V?$allocator@D@2@@std@@@2@V?$allocator@U?$pair@$$CBV?$basic_string@DU?$char_traits@D@std@@V?$allocator@D@2@@std@@V12@@std@@@2@$0A@@std@@@std@@IBEAAPAU_Node@?$_Tree_nod@V?$_Tmap_traits@V?$basic_string@DU?$char_traits@D@std@@V?$allocator@D@2@@std@@V12@U?$less@V?$basic_string@DU?$char_traits@D@std@@V?$allocator@D@2@@std@@@2@V?$allocator@U?$pair@$$CBV?$basic_string@DU?$char_traits@D@std@@V?$allocator@D@2@@std@@V12@@std@@@2@$0A@@std@@@2@XZ
	?_Root@?$_Tree@V?$_Tset_traits@V?$basic_string@DU?$char_traits@D@std@@V?$allocator@D@2@@std@@U?$less@V?$basic_string@DU?$char_traits@D@std@@V?$allocator@D@2@@std@@@2@V?$allocator@V?$basic_string@DU?$char_traits@D@std@@V?$allocator@D@2@@std@@@2@$0A@@std@@@std@@IBEAAPAU_Node@?$_Tree_nod@V?$_Tset_traits@V?$basic_string@DU?$char_traits@D@std@@V?$allocator@D@2@@std@@U?$less@V?$basic_string@DU?$char_traits@D@std@@V?$allocator@D@2@@std@@@2@V?$allocator@V?$basic_string@DU?$char_traits@D@std@@V?$allocator@D@2@@std@@@2@$0A@@std@@@2@XZ
	?_Rrotate@?$_Tree@V?$_Tmap_traits@V?$basic_string@DU?$char_traits@D@std@@V?$allocator@D@2@@std@@V12@U?$less@V?$basic_string@DU?$char_traits@D@std@@V?$allocator@D@2@@std@@@2@V?$allocator@U?$pair@$$CBV?$basic_string@DU?$char_traits@D@std@@V?$allocator@D@2@@std@@V12@@std@@@2@$0A@@std@@@std@@IAEXPAU_Node@?$_Tree_nod@V?$_Tmap_traits@V?$basic_string@DU?$char_traits@D@std@@V?$allocator@D@2@@std@@V12@U?$less@V?$basic_string@DU?$char_traits@D@std@@V?$allocator@D@2@@std@@@2@V?$allocator@U?$pair@$$CBV?$basic_string@DU?$char_traits@D@std@@V?$allocator@D@2@@std@@V12@@std@@@2@$0A@@std@@@2@@Z
	?_Rrotate@?$_Tree@V?$_Tset_traits@V?$basic_string@DU?$char_traits@D@std@@V?$allocator@D@2@@std@@U?$less@V?$basic_string@DU?$char_traits@D@std@@V?$allocator@D@2@@std@@@2@V?$allocator@V?$basic_string@DU?$char_traits@D@std@@V?$allocator@D@2@@std@@@2@$0A@@std@@@std@@IAEXPAU_Node@?$_Tree_nod@V?$_Tset_traits@V?$basic_string@DU?$char_traits@D@std@@V?$allocator@D@2@@std@@U?$less@V?$basic_string@DU?$char_traits@D@std@@V?$allocator@D@2@@std@@@2@V?$allocator@V?$basic_string@DU?$char_traits@D@std@@V?$allocator@D@2@@std@@@2@$0A@@std@@@2@@Z
	?_Stdio@?$_Iosb@H@std@@2W4_Fmtflags@12@B
	?_Tidy@?$_Tree@V?$_Tset_traits@V?$basic_string@DU?$char_traits@D@std@@V?$allocator@D@2@@std@@U?$less@V?$basic_string@DU?$char_traits@D@std@@V?$allocator@D@2@@std@@@2@V?$allocator@V?$basic_string@DU?$char_traits@D@std@@V?$allocator@D@2@@std@@@2@$0A@@std@@@std@@IAEXXZ
	?_Tidy@?$deque@PAVBaseType@@V?$allocator@PAVBaseType@@@std@@@std@@IAEXXZ
	?_Tidy@?$list@Ufunction@ConstraintEvaluator@@V?$allocator@Ufunction@ConstraintEvaluator@@@std@@@std@@IAEXXZ
	?_Tidy@?$vector@HV?$allocator@H@std@@@std@@IAEXXZ
	?_Tidy@?$vector@PAUClause@@V?$allocator@PAUClause@@@std@@@std@@IAEXXZ
	?_Tidy@?$vector@PAUentry@AttrTable@@V?$allocator@PAUentry@AttrTable@@@std@@@std@@IAEXXZ
	?_Tidy@?$vector@PAV?$vector@HV?$allocator@H@std@@@std@@V?$allocator@PAV?$vector@HV?$allocator@H@std@@@std@@@2@@std@@IAEXXZ
	?_Tidy@?$vector@PAV?$vector@PAV?$vector@PAVBaseType@@V?$allocator@PAVBaseType@@@std@@@std@@V?$allocator@PAV?$vector@PAVBaseType@@V?$allocator@PAVBaseType@@@std@@@std@@@2@@std@@V?$allocator@PAV?$vector@PAV?$vector@PAVBaseType@@V?$allocator@PAVBaseType@@@std@@@std@@V?$allocator@PAV?$vector@PAVBaseType@@V?$allocator@PAVBaseType@@@std@@@std@@@2@@std@@@2@@std@@IAEXXZ
	?_Tidy@?$vector@PAV?$vector@PAVBaseType@@V?$allocator@PAVBaseType@@@std@@@std@@V?$allocator@PAV?$vector@PAVBaseType@@V?$allocator@PAVBaseType@@@std@@@std@@@2@@std@@IAEXXZ
	?_Tidy@?$vector@PAVAttrTable@@V?$allocator@PAVAttrTable@@@std@@@std@@IAEXXZ
	?_Tidy@?$vector@PAVBaseType@@V?$allocator@PAVBaseType@@@std@@@std@@IAEXXZ
	?_Tidy@?$vector@PAVGSEClause@@V?$allocator@PAVGSEClause@@@std@@@std@@IAEXXZ
	?_Tidy@?$vector@PAVrvalue@@V?$allocator@PAVrvalue@@@std@@@std@@IAEXXZ
	?_Tidy@?$vector@Udimension@Array@@V?$allocator@Udimension@Array@@@std@@@std@@IAEXXZ
	?_Tidy@?$vector@V?$basic_string@DU?$char_traits@D@std@@V?$allocator@D@2@@std@@V?$allocator@V?$basic_string@DU?$char_traits@D@std@@V?$allocator@D@2@@std@@@2@@std@@IAEXXZ
	?_Ufill@?$vector@HV?$allocator@H@std@@@std@@IAEPAHPAHIABH@Z
	?_Ufill@?$vector@PAUClause@@V?$allocator@PAUClause@@@std@@@std@@IAEPAPAUClause@@PAPAU3@IABQAU3@@Z
	?_Ufill@?$vector@PAUentry@AttrTable@@V?$allocator@PAUentry@AttrTable@@@std@@@std@@IAEPAPAUentry@AttrTable@@PAPAU34@IABQAU34@@Z
	?_Ufill@?$vector@PAV?$vector@HV?$allocator@H@std@@@std@@V?$allocator@PAV?$vector@HV?$allocator@H@std@@@std@@@2@@std@@IAEPAPAV?$vector@HV?$allocator@H@std@@@2@PAPAV32@IABQAV32@@Z
	?_Ufill@?$vector@PAV?$vector@PAV?$vector@PAVBaseType@@V?$allocator@PAVBaseType@@@std@@@std@@V?$allocator@PAV?$vector@PAVBaseType@@V?$allocator@PAVBaseType@@@std@@@std@@@2@@std@@V?$allocator@PAV?$vector@PAV?$vector@PAVBaseType@@V?$allocator@PAVBaseType@@@std@@@std@@V?$allocator@PAV?$vector@PAVBaseType@@V?$allocator@PAVBaseType@@@std@@@std@@@2@@std@@@2@@std@@IAEPAPAV?$vector@PAV?$vector@PAVBaseType@@V?$allocator@PAVBaseType@@@std@@@std@@V?$allocator@PAV?$vector@PAVBaseType@@V?$allocator@PAVBaseType@@@std@@@std@@@2@@2@PAPAV32@IABQAV32@@Z
	?_Ufill@?$vector@PAV?$vector@PAVBaseType@@V?$allocator@PAVBaseType@@@std@@@std@@V?$allocator@PAV?$vector@PAVBaseType@@V?$allocator@PAVBaseType@@@std@@@std@@@2@@std@@IAEPAPAV?$vector@PAVBaseType@@V?$allocator@PAVBaseType@@@std@@@2@PAPAV32@IABQAV32@@Z
	?_Ufill@?$vector@PAVAttrTable@@V?$allocator@PAVAttrTable@@@std@@@std@@IAEPAPAVAttrTable@@PAPAV3@IABQAV3@@Z
	?_Ufill@?$vector@PAVBaseType@@V?$allocator@PAVBaseType@@@std@@@std@@IAEPAPAVBaseType@@PAPAV3@IABQAV3@@Z
	?_Ufill@?$vector@PAVGSEClause@@V?$allocator@PAVGSEClause@@@std@@@std@@IAEPAPAVGSEClause@@PAPAV3@IABQAV3@@Z
	?_Ufill@?$vector@PAVrvalue@@V?$allocator@PAVrvalue@@@std@@@std@@IAEPAPAVrvalue@@PAPAV3@IABQAV3@@Z
	?_Ufill@?$vector@Udimension@Array@@V?$allocator@Udimension@Array@@@std@@@std@@IAEPAUdimension@Array@@PAU34@IABU34@@Z
	?_Ufill@?$vector@V?$basic_string@DU?$char_traits@D@std@@V?$allocator@D@2@@std@@V?$allocator@V?$basic_string@DU?$char_traits@D@std@@V?$allocator@D@2@@std@@@2@@std@@IAEPAV?$basic_string@DU?$char_traits@D@std@@V?$allocator@D@2@@2@PAV32@IABV32@@Z
	?_Xlen@?$deque@PAVAttrTable@@V?$allocator@PAVAttrTable@@@std@@@std@@KAXXZ
	?_Xlen@?$deque@PAVBaseType@@V?$allocator@PAVBaseType@@@std@@@std@@KAXXZ
	?_Xlen@?$deque@W4ParseState@DDXParser@@V?$allocator@W4ParseState@DDXParser@@@std@@@std@@KAXXZ
	?_Xlen@?$vector@HV?$allocator@H@std@@@std@@KAXXZ
	?_Xlen@?$vector@PAUClause@@V?$allocator@PAUClause@@@std@@@std@@KAXXZ
	?_Xlen@?$vector@PAUentry@AttrTable@@V?$allocator@PAUentry@AttrTable@@@std@@@std@@KAXXZ
	?_Xlen@?$vector@PAV?$vector@HV?$allocator@H@std@@@std@@V?$allocator@PAV?$vector@HV?$allocator@H@std@@@std@@@2@@std@@KAXXZ
	?_Xlen@?$vector@PAV?$vector@PAV?$vector@PAVBaseType@@V?$allocator@PAVBaseType@@@std@@@std@@V?$allocator@PAV?$vector@PAVBaseType@@V?$allocator@PAVBaseType@@@std@@@std@@@2@@std@@V?$allocator@PAV?$vector@PAV?$vector@PAVBaseType@@V?$allocator@PAVBaseType@@@std@@@std@@V?$allocator@PAV?$vector@PAVBaseType@@V?$allocator@PAVBaseType@@@std@@@std@@@2@@std@@@2@@std@@KAXXZ
	?_Xlen@?$vector@PAV?$vector@PAVBaseType@@V?$allocator@PAVBaseType@@@std@@@std@@V?$allocator@PAV?$vector@PAVBaseType@@V?$allocator@PAVBaseType@@@std@@@std@@@2@@std@@KAXXZ
	?_Xlen@?$vector@PAVAttrTable@@V?$allocator@PAVAttrTable@@@std@@@std@@KAXXZ
	?_Xlen@?$vector@PAVBaseType@@V?$allocator@PAVBaseType@@@std@@@std@@KAXXZ
	?_Xlen@?$vector@PAVGSEClause@@V?$allocator@PAVGSEClause@@@std@@@std@@KAXXZ
	?_Xlen@?$vector@PAVrvalue@@V?$allocator@PAVrvalue@@@std@@@std@@KAXXZ
	?_Xlen@?$vector@Udimension@Array@@V?$allocator@Udimension@Array@@@std@@@std@@KAXXZ
	?_Xlen@?$vector@V?$basic_string@DU?$char_traits@D@std@@V?$allocator@D@2@@std@@V?$allocator@V?$basic_string@DU?$char_traits@D@std@@V?$allocator@D@2@@std@@@2@@std@@KAXXZ
	?_duplicate@Array@@IAEXABV1@@Z
	?_duplicate@BaseType@@IAEXABV1@@Z
	?_duplicate@Constructor@@IAEXABV1@@Z
	?_duplicate@Grid@@AAEXABV1@@Z
	?_duplicate@Sequence@@AAEXABV1@@Z
	?_duplicate@Structure@@IAEXABV1@@Z
	?_duplicate@Vector@@IAEXABV1@@Z
	?add_constraint@Array@@QAEXV?$_Vector_iterator@Udimension@Array@@V?$allocator@Udimension@Array@@@std@@@std@@HHH@Z
	?add_container_alias@AttrTable@@QAEXABV?$basic_string@DU?$char_traits@D@std@@V?$allocator@D@2@@std@@PAV1@@Z
	?add_entry@@YAXAAVDDS@@PAPAV?$stack@PAVBaseType@@V?$deque@PAVBaseType@@V?$allocator@PAVBaseType@@@std@@@std@@@std@@PAPAVBaseType@@W4Part@@@Z
	?add_function@ConstraintEvaluator@@QAEXABV?$basic_string@DU?$char_traits@D@std@@V?$allocator@D@2@@std@@P6APAVBaseType@@HQAPAV4@AAVDDS@@0@Z@Z
	?add_function@ConstraintEvaluator@@QAEXABV?$basic_string@DU?$char_traits@D@std@@V?$allocator@D@2@@std@@P6AXHQAPAVBaseType@@AAVDDS@@AAV1@@Z@Z
	?add_function@ConstraintEvaluator@@QAEXABV?$basic_string@DU?$char_traits@D@std@@V?$allocator@D@2@@std@@P6A_NHQAPAVBaseType@@AAVDDS@@@Z@Z
	?add_global_attribute@DDS@@AAEXPAUentry@AttrTable@@@Z
	?add_table@DAS@@QAEPAVAttrTable@@ABV?$basic_string@DU?$char_traits@D@std@@V?$allocator@D@2@@std@@PAV2@@Z
	?add_value_alias@AttrTable@@QAEXPAV1@ABV?$basic_string@DU?$char_traits@D@std@@V?$allocator@D@2@@std@@1@Z
	?add_var@Array@@UAEXPAVBaseType@@W4Part@@@Z
	?add_var@BaseType@@UAEXPAV1@W4Part@@@Z
	?add_var@DDS@@QAEXPAVBaseType@@@Z
	?add_var@Grid@@UAEXPAVBaseType@@W4Part@@@Z
	?add_var@Sequence@@UAEXPAVBaseType@@W4Part@@@Z
	?add_var@Structure@@UAEXPAVBaseType@@W4Part@@@Z
	?add_var@Vector@@UAEXPAVBaseType@@W4Part@@@Z
	?adjustfield@?$_Iosb@H@std@@2W4_Fmtflags@12@B
	?all@?$_Locbase@H@std@@2HB
	?allocate@?$allocator@H@std@@QAEPAHI@Z
	?allocate@?$allocator@PAPAVAttrTable@@@std@@QAEPAPAPAVAttrTable@@I@Z
	?allocate@?$allocator@PAPAVBaseType@@@std@@QAEPAPAPAVBaseType@@I@Z
	?allocate@?$allocator@PAUClause@@@std@@QAEPAPAUClause@@I@Z
	?allocate@?$allocator@PAUentry@AttrTable@@@std@@QAEPAPAUentry@AttrTable@@I@Z
	?allocate@?$allocator@PAV?$vector@HV?$allocator@H@std@@@std@@@std@@QAEPAPAV?$vector@HV?$allocator@H@std@@@2@I@Z
	?allocate@?$allocator@PAV?$vector@PAV?$vector@PAVBaseType@@V?$allocator@PAVBaseType@@@std@@@std@@V?$allocator@PAV?$vector@PAVBaseType@@V?$allocator@PAVBaseType@@@std@@@std@@@2@@std@@@std@@QAEPAPAV?$vector@PAV?$vector@PAVBaseType@@V?$allocator@PAVBaseType@@@std@@@std@@V?$allocator@PAV?$vector@PAVBaseType@@V?$allocator@PAVBaseType@@@std@@@std@@@2@@2@I@Z
	?allocate@?$allocator@PAV?$vector@PAVBaseType@@V?$allocator@PAVBaseType@@@std@@@std@@@std@@QAEPAPAV?$vector@PAVBaseType@@V?$allocator@PAVBaseType@@@std@@@2@I@Z
	?allocate@?$allocator@PAVAttrTable@@@std@@QAEPAPAVAttrTable@@I@Z
	?allocate@?$allocator@PAVBaseType@@@std@@QAEPAPAVBaseType@@I@Z
	?allocate@?$allocator@PAVGSEClause@@@std@@QAEPAPAVGSEClause@@I@Z
	?allocate@?$allocator@PAVrvalue@@@std@@QAEPAPAVrvalue@@I@Z
	?allocate@?$allocator@PAW4ParseState@DDXParser@@@std@@QAEPAPAW4ParseState@DDXParser@@I@Z
	?allocate@?$allocator@U_Node@?$_List_nod@Ufunction@ConstraintEvaluator@@V?$allocator@Ufunction@ConstraintEvaluator@@@std@@@std@@@std@@QAEPAU_Node@?$_List_nod@Ufunction@ConstraintEvaluator@@V?$allocator@Ufunction@ConstraintEvaluator@@@std@@@2@I@Z
	?allocate@?$allocator@U_Node@?$_Tree_nod@V?$_Tmap_traits@V?$basic_string@DU?$char_traits@D@std@@V?$allocator@D@2@@std@@V12@U?$less@V?$basic_string@DU?$char_traits@D@std@@V?$allocator@D@2@@std@@@2@V?$allocator@U?$pair@$$CBV?$basic_string@DU?$char_traits@D@std@@V?$allocator@D@2@@std@@V12@@std@@@2@$0A@@std@@@std@@@std@@QAEPAU_Node@?$_Tree_nod@V?$_Tmap_traits@V?$basic_string@DU?$char_traits@D@std@@V?$allocator@D@2@@std@@V12@U?$less@V?$basic_string@DU?$char_traits@D@std@@V?$allocator@D@2@@std@@@2@V?$allocator@U?$pair@$$CBV?$basic_string@DU?$char_traits@D@std@@V?$allocator@D@2@@std@@V12@@std@@@2@$0A@@std@@@2@I@Z
	?allocate@?$allocator@U_Node@?$_Tree_nod@V?$_Tset_traits@V?$basic_string@DU?$char_traits@D@std@@V?$allocator@D@2@@std@@U?$less@V?$basic_string@DU?$char_traits@D@std@@V?$allocator@D@2@@std@@@2@V?$allocator@V?$basic_string@DU?$char_traits@D@std@@V?$allocator@D@2@@std@@@2@$0A@@std@@@std@@@std@@QAEPAU_Node@?$_Tree_nod@V?$_Tset_traits@V?$basic_string@DU?$char_traits@D@std@@V?$allocator@D@2@@std@@U?$less@V?$basic_string@DU?$char_traits@D@std@@V?$allocator@D@2@@std@@@2@V?$allocator@V?$basic_string@DU?$char_traits@D@std@@V?$allocator@D@2@@std@@@2@$0A@@std@@@2@I@Z
	?allocate@?$allocator@Udimension@Array@@@std@@QAEPAUdimension@Array@@I@Z
	?allocate@?$allocator@V?$basic_string@DU?$char_traits@D@std@@V?$allocator@D@2@@std@@@std@@QAEPAV?$basic_string@DU?$char_traits@D@std@@V?$allocator@D@2@@2@I@Z
	?allocate@?$allocator@W4ParseState@DDXParser@@@std@@QAEPAW4ParseState@DDXParser@@I@Z
	?app@?$_Iosb@H@std@@2W4_Openmode@12@B
	?append_array_index@@YAPAV?$vector@PAV?$vector@HV?$allocator@H@std@@@std@@V?$allocator@PAV?$vector@HV?$allocator@H@std@@@std@@@2@@std@@PAV12@PAV?$vector@HV?$allocator@H@std@@@2@@Z
	?append_attr@AttrTable@@QAEIABV?$basic_string@DU?$char_traits@D@std@@V?$allocator@D@2@@std@@00@Z
	?append_attr@AttrTable@@QAEIABV?$basic_string@DU?$char_traits@D@std@@V?$allocator@D@2@@std@@0PAV?$vector@V?$basic_string@DU?$char_traits@D@std@@V?$allocator@D@2@@std@@V?$allocator@V?$basic_string@DU?$char_traits@D@std@@V?$allocator@D@2@@std@@@2@@3@@Z
	?append_clause@ConstraintEvaluator@@QAEXHPAVrvalue@@PAV?$vector@PAVrvalue@@V?$allocator@PAVrvalue@@@std@@@std@@@Z
	?append_clause@ConstraintEvaluator@@QAEXP6APAVBaseType@@HQAPAV2@AAVDDS@@ABV?$basic_string@DU?$char_traits@D@std@@V?$allocator@D@2@@std@@@ZPAV?$vector@PAVrvalue@@V?$allocator@PAVrvalue@@@std@@@5@@Z
	?append_clause@ConstraintEvaluator@@QAEXP6A_NHQAPAVBaseType@@AAVDDS@@@ZPAV?$vector@PAVrvalue@@V?$allocator@PAVrvalue@@@std@@@std@@@Z
	?append_constant@ConstraintEvaluator@@QAEXPAVBaseType@@@Z
	?append_container@AttrTable@@QAEPAV1@ABV?$basic_string@DU?$char_traits@D@std@@V?$allocator@D@2@@std@@@Z
	?append_container@AttrTable@@QAEPAV1@PAV1@ABV?$basic_string@DU?$char_traits@D@std@@V?$allocator@D@2@@std@@@Z
	?append_dim@Array@@QAEXHV?$basic_string@DU?$char_traits@D@std@@V?$allocator@D@2@@std@@@Z
	?append_double_to_string@@YAXABNAAV?$basic_string@DU?$char_traits@D@std@@V?$allocator@D@2@@std@@@Z
	?append_long_to_string@@YAXJHAAV?$basic_string@DU?$char_traits@D@std@@V?$allocator@D@2@@std@@@Z
	?append_rvalue_list@@YAPAV?$vector@PAVrvalue@@V?$allocator@PAVrvalue@@@std@@@std@@PAV12@PAVrvalue@@@Z
	?apply_constraint_to_data@GridGeoConstraint@@UAEXXZ
	?array_var@Grid@@QAEPAVBaseType@@XZ
	?ate@?$_Iosb@H@std@@2W4_Openmode@12@B
	?attr_alias@AttrTable@@QAE_NABV?$basic_string@DU?$char_traits@D@std@@V?$allocator@D@2@@std@@0@Z
	?attr_alias@AttrTable@@QAE_NABV?$basic_string@DU?$char_traits@D@std@@V?$allocator@D@2@@std@@PAV1@0@Z
	?attr_begin@AttrTable@@QAE?AV?$_Vector_iterator@PAUentry@AttrTable@@V?$allocator@PAUentry@AttrTable@@@std@@@std@@XZ
	?attr_end@AttrTable@@QAE?AV?$_Vector_iterator@PAUentry@AttrTable@@V?$allocator@PAUentry@AttrTable@@@std@@@std@@XZ
	?back@?$deque@PAVAttrTable@@V?$allocator@PAVAttrTable@@@std@@@std@@QAEAAPAVAttrTable@@XZ
	?back@?$deque@PAVBaseType@@V?$allocator@PAVBaseType@@@std@@@std@@QAEAAPAVBaseType@@XZ
	?back@?$deque@W4ParseState@DDXParser@@V?$allocator@W4ParseState@DDXParser@@@std@@@std@@QBEABW4ParseState@DDXParser@@XZ
	?back@?$vector@PAV?$vector@PAV?$vector@PAVBaseType@@V?$allocator@PAVBaseType@@@std@@@std@@V?$allocator@PAV?$vector@PAVBaseType@@V?$allocator@PAVBaseType@@@std@@@std@@@2@@std@@V?$allocator@PAV?$vector@PAV?$vector@PAVBaseType@@V?$allocator@PAVBaseType@@@std@@@std@@V?$allocator@PAV?$vector@PAVBaseType@@V?$allocator@PAVBaseType@@@std@@@std@@@2@@std@@@2@@std@@QAEAAPAV?$vector@PAV?$vector@PAVBaseType@@V?$allocator@PAVBaseType@@@std@@@std@@V?$allocator@PAV?$vector@PAVBaseType@@V?$allocator@PAVBaseType@@@std@@@std@@@2@@2@XZ
	?back@?$vector@PAVAttrTable@@V?$allocator@PAVAttrTable@@@std@@@std@@QAEAAPAVAttrTable@@XZ
	?badbit@?$_Iosb@H@std@@2W4_Iostate@12@B
	?basefield@?$_Iosb@H@std@@2W4_Fmtflags@12@B
	?beg@?$_Iosb@H@std@@2W4_Seekdir@12@B
	?begin@?$_Tree@V?$_Tmap_traits@V?$basic_string@DU?$char_traits@D@std@@V?$allocator@D@2@@std@@V12@U?$less@V?$basic_string@DU?$char_traits@D@std@@V?$allocator@D@2@@std@@@2@V?$allocator@U?$pair@$$CBV?$basic_string@DU?$char_traits@D@std@@V?$allocator@D@2@@std@@V12@@std@@@2@$0A@@std@@@std@@QAE?AViterator@12@XZ
	?begin@?$_Tree@V?$_Tset_traits@V?$basic_string@DU?$char_traits@D@std@@V?$allocator@D@2@@std@@U?$less@V?$basic_string@DU?$char_traits@D@std@@V?$allocator@D@2@@std@@@2@V?$allocator@V?$basic_string@DU?$char_traits@D@std@@V?$allocator@D@2@@std@@@2@$0A@@std@@@std@@QAE?AViterator@12@XZ
	?begin@?$list@Ufunction@ConstraintEvaluator@@V?$allocator@Ufunction@ConstraintEvaluator@@@std@@@std@@QAE?AV?$_Iterator@$00@12@XZ
	?begin@?$list@Ufunction@ConstraintEvaluator@@V?$allocator@Ufunction@ConstraintEvaluator@@@std@@@std@@QBE?AV?$_Const_iterator@$00@12@XZ
	?begin@?$vector@HV?$allocator@H@std@@@std@@QAE?AV?$_Vector_iterator@HV?$allocator@H@std@@@2@XZ
	?begin@?$vector@PAUClause@@V?$allocator@PAUClause@@@std@@@std@@QAE?AV?$_Vector_iterator@PAUClause@@V?$allocator@PAUClause@@@std@@@2@XZ
	?begin@?$vector@PAUentry@AttrTable@@V?$allocator@PAUentry@AttrTable@@@std@@@std@@QAE?AV?$_Vector_iterator@PAUentry@AttrTable@@V?$allocator@PAUentry@AttrTable@@@std@@@2@XZ
	?begin@?$vector@PAUentry@AttrTable@@V?$allocator@PAUentry@AttrTable@@@std@@@std@@QBE?AV?$_Vector_const_iterator@PAUentry@AttrTable@@V?$allocator@PAUentry@AttrTable@@@std@@@2@XZ
	?begin@?$vector@PAV?$vector@HV?$allocator@H@std@@@std@@V?$allocator@PAV?$vector@HV?$allocator@H@std@@@std@@@2@@std@@QAE?AV?$_Vector_iterator@PAV?$vector@HV?$allocator@H@std@@@std@@V?$allocator@PAV?$vector@HV?$allocator@H@std@@@std@@@2@@2@XZ
	?begin@?$vector@PAV?$vector@PAV?$vector@PAVBaseType@@V?$allocator@PAVBaseType@@@std@@@std@@V?$allocator@PAV?$vector@PAVBaseType@@V?$allocator@PAVBaseType@@@std@@@std@@@2@@std@@V?$allocator@PAV?$vector@PAV?$vector@PAVBaseType@@V?$allocator@PAVBaseType@@@std@@@std@@V?$allocator@PAV?$vector@PAVBaseType@@V?$allocator@PAVBaseType@@@std@@@std@@@2@@std@@@2@@std@@QAE?AV?$_Vector_iterator@PAV?$vector@PAV?$vector@PAVBaseType@@V?$allocator@PAVBaseType@@@std@@@std@@V?$allocator@PAV?$vector@PAVBaseType@@V?$allocator@PAVBaseType@@@std@@@std@@@2@@std@@V?$allocator@PAV?$vector@PAV?$vector@PAVBaseType@@V?$allocator@PAVBaseType@@@std@@@std@@V?$allocator@PAV?$vector@PAVBaseType@@V?$allocator@PAVBaseType@@@std@@@std@@@2@@std@@@2@@2@XZ
	?begin@?$vector@PAV?$vector@PAVBaseType@@V?$allocator@PAVBaseType@@@std@@@std@@V?$allocator@PAV?$vector@PAVBaseType@@V?$allocator@PAVBaseType@@@std@@@std@@@2@@std@@QAE?AV?$_Vector_iterator@PAV?$vector@PAVBaseType@@V?$allocator@PAVBaseType@@@std@@@std@@V?$allocator@PAV?$vector@PAVBaseType@@V?$allocator@PAVBaseType@@@std@@@std@@@2@@2@XZ
	?begin@?$vector@PAV?$vector@PAVBaseType@@V?$allocator@PAVBaseType@@@std@@@std@@V?$allocator@PAV?$vector@PAVBaseType@@V?$allocator@PAVBaseType@@@std@@@std@@@2@@std@@QBE?AV?$_Vector_const_iterator@PAV?$vector@PAVBaseType@@V?$allocator@PAVBaseType@@@std@@@std@@V?$allocator@PAV?$vector@PAVBaseType@@V?$allocator@PAVBaseType@@@std@@@std@@@2@@2@XZ
	?begin@?$vector@PAVAttrTable@@V?$allocator@PAVAttrTable@@@std@@@std@@QAE?AV?$_Vector_iterator@PAVAttrTable@@V?$allocator@PAVAttrTable@@@std@@@2@XZ
	?begin@?$vector@PAVBaseType@@V?$allocator@PAVBaseType@@@std@@@std@@QAE?AV?$_Vector_iterator@PAVBaseType@@V?$allocator@PAVBaseType@@@std@@@2@XZ
	?begin@?$vector@PAVBaseType@@V?$allocator@PAVBaseType@@@std@@@std@@QBE?AV?$_Vector_const_iterator@PAVBaseType@@V?$allocator@PAVBaseType@@@std@@@2@XZ
	?begin@?$vector@PAVGSEClause@@V?$allocator@PAVGSEClause@@@std@@@std@@QAE?AV?$_Vector_iterator@PAVGSEClause@@V?$allocator@PAVGSEClause@@@std@@@2@XZ
	?begin@?$vector@PAVGSEClause@@V?$allocator@PAVGSEClause@@@std@@@std@@QBE?AV?$_Vector_const_iterator@PAVGSEClause@@V?$allocator@PAVGSEClause@@@std@@@2@XZ
	?begin@?$vector@PAVrvalue@@V?$allocator@PAVrvalue@@@std@@@std@@QAE?AV?$_Vector_iterator@PAVrvalue@@V?$allocator@PAVrvalue@@@std@@@2@XZ
	?begin@?$vector@Udimension@Array@@V?$allocator@Udimension@Array@@@std@@@std@@QAE?AV?$_Vector_iterator@Udimension@Array@@V?$allocator@Udimension@Array@@@std@@@2@XZ
	?begin@?$vector@V?$basic_string@DU?$char_traits@D@std@@V?$allocator@D@2@@std@@V?$allocator@V?$basic_string@DU?$char_traits@D@std@@V?$allocator@D@2@@std@@@2@@std@@QAE?AV?$_Vector_iterator@V?$basic_string@DU?$char_traits@D@std@@V?$allocator@D@2@@std@@V?$allocator@V?$basic_string@DU?$char_traits@D@std@@V?$allocator@D@2@@std@@@2@@2@XZ
	?begin@?$vector@V?$basic_string@DU?$char_traits@D@std@@V?$allocator@D@2@@std@@V?$allocator@V?$basic_string@DU?$char_traits@D@std@@V?$allocator@D@2@@std@@@2@@std@@QBE?AV?$_Vector_const_iterator@V?$basic_string@DU?$char_traits@D@std@@V?$allocator@D@2@@std@@V?$allocator@V?$basic_string@DU?$char_traits@D@std@@V?$allocator@D@2@@std@@@2@@2@XZ
	?binary@?$_Iosb@H@std@@2W4_Openmode@12@B
	?boolalpha@?$_Iosb@H@std@@2W4_Fmtflags@12@B
	?boolean_clause@Clause@@QAE_NXZ
	?boolean_expression@ConstraintEvaluator@@QAE_NXZ
	?bracket_projection@@YA_NAAVDDS@@PBDPAV?$vector@PAV?$vector@HV?$allocator@H@std@@@std@@V?$allocator@PAV?$vector@HV?$allocator@H@std@@@std@@@2@@std@@@Z
	?buf2val@Byte@@UAEIPAPAX@Z
	?buf2val@Float32@@UAEIPAPAX@Z
	?buf2val@Float64@@UAEIPAPAX@Z
	?buf2val@Grid@@UAEIPAPAX@Z
	?buf2val@Int16@@UAEIPAPAX@Z
	?buf2val@Int32@@UAEIPAPAX@Z
	?buf2val@Sequence@@UAEIPAPAX@Z
	?buf2val@Str@@UAEIPAPAX@Z
	?buf2val@Structure@@UAEIPAPAX@Z
	?buf2val@UInt16@@UAEIPAPAX@Z
	?buf2val@UInt32@@UAEIPAPAX@Z
	?buf2val@Vector@@UAEIPAPAX@Z
	?build_btp_args@@YAPAPAVBaseType@@PAV?$vector@PAVrvalue@@V?$allocator@PAVrvalue@@@std@@@std@@AAVDDS@@ABV?$basic_string@DU?$char_traits@D@std@@V?$allocator@D@2@@3@@Z
	?build_dual_gse_clause@@YAPAVGSEClause@@PAUgse_arg@@QADHNHN@Z
	?build_gse_clause@@YAPAVGSEClause@@PAUgse_arg@@QADHN@Z
	?build_rev_gse_clause@@YAPAVGSEClause@@PAUgse_arg@@QADHN@Z
	?bvalue@rvalue@@QAEPAVBaseType@@ABV?$basic_string@DU?$char_traits@D@std@@V?$allocator@D@2@@std@@AAVDDS@@@Z
	?capacity@?$vector@HV?$allocator@H@std@@@std@@QBEIXZ
	?capacity@?$vector@PAUClause@@V?$allocator@PAUClause@@@std@@@std@@QBEIXZ
	?capacity@?$vector@PAUentry@AttrTable@@V?$allocator@PAUentry@AttrTable@@@std@@@std@@QBEIXZ
	?capacity@?$vector@PAV?$vector@HV?$allocator@H@std@@@std@@V?$allocator@PAV?$vector@HV?$allocator@H@std@@@std@@@2@@std@@QBEIXZ
	?capacity@?$vector@PAV?$vector@PAV?$vector@PAVBaseType@@V?$allocator@PAVBaseType@@@std@@@std@@V?$allocator@PAV?$vector@PAVBaseType@@V?$allocator@PAVBaseType@@@std@@@std@@@2@@std@@V?$allocator@PAV?$vector@PAV?$vector@PAVBaseType@@V?$allocator@PAVBaseType@@@std@@@std@@V?$allocator@PAV?$vector@PAVBaseType@@V?$allocator@PAVBaseType@@@std@@@std@@@2@@std@@@2@@std@@QBEIXZ
	?capacity@?$vector@PAV?$vector@PAVBaseType@@V?$allocator@PAVBaseType@@@std@@@std@@V?$allocator@PAV?$vector@PAVBaseType@@V?$allocator@PAVBaseType@@@std@@@std@@@2@@std@@QBEIXZ
	?capacity@?$vector@PAVAttrTable@@V?$allocator@PAVAttrTable@@@std@@@std@@QBEIXZ
	?capacity@?$vector@PAVBaseType@@V?$allocator@PAVBaseType@@@std@@@std@@QBEIXZ
	?capacity@?$vector@PAVGSEClause@@V?$allocator@PAVGSEClause@@@std@@@std@@QBEIXZ
	?capacity@?$vector@PAVrvalue@@V?$allocator@PAVrvalue@@@std@@@std@@QBEIXZ
	?capacity@?$vector@Udimension@Array@@V?$allocator@Udimension@Array@@@std@@@std@@QBEIXZ
	?capacity@?$vector@V?$basic_string@DU?$char_traits@D@std@@V?$allocator@D@2@@std@@V?$allocator@V?$basic_string@DU?$char_traits@D@std@@V?$allocator@D@2@@std@@@2@@std@@QBEIXZ
	?categorize_latitude@GeoConstraint@@IBE?AW4LatitudeSense@1@XZ
	?categorize_notation@GeoConstraint@@IBE?AW4Notation@1@NN@Z
	?ce_expr_create_buffer@@YAPAUyy_buffer_state@@PAU_iobuf@@H@Z
	?ce_expr_delete_buffer@@YAXPAUyy_buffer_state@@@Z
	?ce_expr_delete_buffer@@YAXPAX@Z
	?ce_expr_flush_buffer@@YAXPAUyy_buffer_state@@@Z
	?ce_expr_init_buffer@@YAXPAUyy_buffer_state@@PAU_iobuf@@@Z
	?ce_expr_load_buffer_state@@YAXXZ
	?ce_expr_scan_buffer@@YAPAUyy_buffer_state@@PADI@Z
	?ce_expr_scan_bytes@@YAPAUyy_buffer_state@@PBDH@Z
	?ce_expr_scan_string@@YAPAUyy_buffer_state@@PBD@Z
	?ce_expr_string@@YAPAXPBD@Z
	?ce_expr_switch_to_buffer@@YAXPAUyy_buffer_state@@@Z
	?ce_expr_switch_to_buffer@@YAXPAX@Z
	?ce_exprchar@@3HA
	?ce_exprdebug@@3HA
	?ce_exprerror@@YAXABV?$basic_string@DU?$char_traits@D@std@@V?$allocator@D@2@@std@@0@Z
	?ce_exprerror@@YAXABV?$basic_string@DU?$char_traits@D@std@@V?$allocator@D@2@@std@@@Z
	?ce_exprerror@@YAXPBD0@Z
	?ce_exprerror@@YAXPBD@Z
	?ce_exprin@@3PAU_iobuf@@A
	?ce_exprleng@@3HA
	?ce_exprlex@@YAHXZ
	?ce_exprlval@@3TYYSTYPE@@A
	?ce_exprnerrs@@3HA
	?ce_exprout@@3PAU_iobuf@@A
	?ce_exprparse@@YAHPAX@Z
	?ce_exprrestart@@YAXPAU_iobuf@@@Z
	?ce_exprtext@@3PADA
	?characters@DDXParser@@SAXPAV1@PBEH@Z
	?check_byte@@YAHPBD@Z
	?check_float32@@YAHPBD@Z
	?check_float64@@YAHPBD@Z
	?check_int16@@YAHPBD@Z
	?check_int32@@YAHPBD@Z
	?check_required_attribute@DDXParser@@AAE_NABV?$basic_string@DU?$char_traits@D@std@@V?$allocator@D@2@@std@@@Z
	?check_semantics@Array@@UAE_NAAV?$basic_string@DU?$char_traits@D@std@@V?$allocator@D@2@@std@@_N@Z
	?check_semantics@BaseType@@UAE_NAAV?$basic_string@DU?$char_traits@D@std@@V?$allocator@D@2@@std@@_N@Z
	?check_semantics@DDS@@QAE_N_N@Z
	?check_semantics@Grid@@UAE_NAAV?$basic_string@DU?$char_traits@D@std@@V?$allocator@D@2@@std@@_N@Z
	?check_semantics@Sequence@@UAE_NAAV?$basic_string@DU?$char_traits@D@std@@V?$allocator@D@2@@std@@_N@Z
	?check_semantics@Structure@@UAE_NAAV?$basic_string@DU?$char_traits@D@std@@V?$allocator@D@2@@std@@_N@Z
	?check_semantics@Vector@@UAE_NAAV?$basic_string@DU?$char_traits@D@std@@V?$allocator@D@2@@std@@_N@Z
	?check_uint16@@YAHPBD@Z
	?check_uint32@@YAHPBD@Z
	?check_url@@YAHPBD@Z
	?clause_begin@ConstraintEvaluator@@QAE?AV?$_Vector_iterator@PAUClause@@V?$allocator@PAUClause@@@std@@@std@@XZ
	?clause_end@ConstraintEvaluator@@QAE?AV?$_Vector_iterator@PAUClause@@V?$allocator@PAUClause@@@std@@@std@@XZ
	?clause_value@ConstraintEvaluator@@QAE_NAAV?$_Vector_iterator@PAUClause@@V?$allocator@PAUClause@@@std@@@std@@AAVDDS@@ABV?$basic_string@DU?$char_traits@D@std@@V?$allocator@D@2@@3@@Z
	?cleanup_parse@DDXParser@@ABEXAAPAU_xmlParserCtxt@@@Z
	?clear@?$_Tree@V?$_Tmap_traits@V?$basic_string@DU?$char_traits@D@std@@V?$allocator@D@2@@std@@V12@U?$less@V?$basic_string@DU?$char_traits@D@std@@V?$allocator@D@2@@std@@@2@V?$allocator@U?$pair@$$CBV?$basic_string@DU?$char_traits@D@std@@V?$allocator@D@2@@std@@V12@@std@@@2@$0A@@std@@@std@@QAEXXZ
	?clear@?$_Tree@V?$_Tset_traits@V?$basic_string@DU?$char_traits@D@std@@V?$allocator@D@2@@std@@U?$less@V?$basic_string@DU?$char_traits@D@std@@V?$allocator@D@2@@std@@@2@V?$allocator@V?$basic_string@DU?$char_traits@D@std@@V?$allocator@D@2@@std@@@2@$0A@@std@@@std@@QAEXXZ
	?clear@?$list@Ufunction@ConstraintEvaluator@@V?$allocator@Ufunction@ConstraintEvaluator@@@std@@@std@@QAEXXZ
	?clear@?$vector@PAV?$vector@PAVBaseType@@V?$allocator@PAVBaseType@@@std@@@std@@V?$allocator@PAV?$vector@PAVBaseType@@V?$allocator@PAVBaseType@@@std@@@std@@@2@@std@@QAEXXZ
	?clear@?$vector@PAVBaseType@@V?$allocator@PAVBaseType@@@std@@@std@@QAEXXZ
	?clear@?$vector@Udimension@Array@@V?$allocator@Udimension@Array@@@std@@@std@@QAEXXZ
	?clear@?$vector@V?$basic_string@DU?$char_traits@D@std@@V?$allocator@D@2@@std@@V?$allocator@V?$basic_string@DU?$char_traits@D@std@@V?$allocator@D@2@@std@@@2@@std@@QAEXXZ
	?clear_constraint@Array@@QAEXXZ
	?clear_constraint@Grid@@UAEXXZ
	?clone@AttrTable@@IAEXABV1@@Z
	?clone@entry@AttrTable@@QAEXABU12@@Z
	?collate@?$_Locbase@H@std@@2HB
	?components@Grid@@UAEH_N@Z
	?compressor@@YAPAU_iobuf@@PAU1@AAH@Z
	?compute_indices@GSEClause@@AAEXXZ
	?construct@?$allocator@PAU_Node@?$_List_nod@Ufunction@ConstraintEvaluator@@V?$allocator@Ufunction@ConstraintEvaluator@@@std@@@std@@@std@@QAEXPAPAU_Node@?$_List_nod@Ufunction@ConstraintEvaluator@@V?$allocator@Ufunction@ConstraintEvaluator@@@std@@@2@ABQAU342@@Z
	?construct@?$allocator@PAU_Node@?$_Tree_nod@V?$_Tset_traits@V?$basic_string@DU?$char_traits@D@std@@V?$allocator@D@2@@std@@U?$less@V?$basic_string@DU?$char_traits@D@std@@V?$allocator@D@2@@std@@@2@V?$allocator@V?$basic_string@DU?$char_traits@D@std@@V?$allocator@D@2@@std@@@2@$0A@@std@@@std@@@std@@QAEXPAPAU_Node@?$_Tree_nod@V?$_Tset_traits@V?$basic_string@DU?$char_traits@D@std@@V?$allocator@D@2@@std@@U?$less@V?$basic_string@DU?$char_traits@D@std@@V?$allocator@D@2@@std@@@2@V?$allocator@V?$basic_string@DU?$char_traits@D@std@@V?$allocator@D@2@@std@@@2@$0A@@std@@@2@ABQAU342@@Z
	?construct@?$allocator@PAVAttrTable@@@std@@QAEXPAPAVAttrTable@@ABQAV3@@Z
	?construct@?$allocator@PAVBaseType@@@std@@QAEXPAPAVBaseType@@ABQAV3@@Z
	?construct@?$allocator@Udimension@Array@@@std@@QAEXPAUdimension@Array@@ABU34@@Z
	?construct@?$allocator@Ufunction@ConstraintEvaluator@@@std@@QAEXPAUfunction@ConstraintEvaluator@@ABU34@@Z
	?construct@?$allocator@V?$basic_string@DU?$char_traits@D@std@@V?$allocator@D@2@@std@@@std@@QAEXPAV?$basic_string@DU?$char_traits@D@std@@V?$allocator@D@2@@2@ABV32@@Z
	?construct@?$allocator@W4ParseState@DDXParser@@@std@@QAEXPAW4ParseState@DDXParser@@ABW434@@Z
	?ctype@?$_Locbase@H@std@@2HB
	?cur@?$_Iosb@H@std@@2W4_Seekdir@12@B
	?d_instance@SignalHandler@@0PAV1@A
	?d_old_handlers@SignalHandler@@0PAP6AXH@ZA
	?d_signal_handlers@SignalHandler@@0PAPAVEventHandler@@A
	?dap_version@@YA?AV?$basic_string@DU?$char_traits@D@std@@V?$allocator@D@2@@std@@XZ
	?das_buffer@@YAPAXPAU_iobuf@@@Z
	?das_create_buffer@@YAPAUyy_buffer_state@@PAU_iobuf@@H@Z
	?das_delete_buffer@@YAXPAUyy_buffer_state@@@Z
	?das_delete_buffer@@YAXPAX@Z
	?das_find@DAS@@IAEPAVAttrTable@@V?$basic_string@DU?$char_traits@D@std@@V?$allocator@D@2@@std@@@Z
	?das_flush_buffer@@YAXPAUyy_buffer_state@@@Z
	?das_init_buffer@@YAXPAUyy_buffer_state@@PAU_iobuf@@@Z
	?das_line_num@@3HA
	?das_load_buffer_state@@YAXXZ
	?das_scan_buffer@@YAPAUyy_buffer_state@@PADI@Z
	?das_scan_bytes@@YAPAUyy_buffer_state@@PBDH@Z
	?das_scan_string@@YAPAUyy_buffer_state@@PBD@Z
	?das_switch_to_buffer@@YAXPAUyy_buffer_state@@@Z
	?das_switch_to_buffer@@YAXPAX@Z
	?daschar@@3HA
	?dasdebug@@3HA
	?dasin@@3PAU_iobuf@@A
	?dasleng@@3HA
	?daslex@@YAHXZ
	?daslval@@3PADA
	?dasnerrs@@3HA
	?dasout@@3PAU_iobuf@@A
	?dasparse@@YAHPAX@Z
	?dasrestart@@YAXPAU_iobuf@@@Z
	?dastext@@3PADA
	?dds_buffer@@YAPAXPAU_iobuf@@@Z
	?dds_create_buffer@@YAPAUyy_buffer_state@@PAU_iobuf@@H@Z
	?dds_delete_buffer@@YAXPAUyy_buffer_state@@@Z
	?dds_delete_buffer@@YAXPAX@Z
	?dds_flush_buffer@@YAXPAUyy_buffer_state@@@Z
	?dds_init_buffer@@YAXPAUyy_buffer_state@@PAU_iobuf@@@Z
	?dds_line_num@@3HA
	?dds_load_buffer_state@@YAXXZ
	?dds_scan_buffer@@YAPAUyy_buffer_state@@PADI@Z
	?dds_scan_bytes@@YAPAUyy_buffer_state@@PBDH@Z
	?dds_scan_string@@YAPAUyy_buffer_state@@PBD@Z
	?dds_switch_to_buffer@@YAXPAUyy_buffer_state@@@Z
	?dds_switch_to_buffer@@YAXPAX@Z
	?ddschar@@3HA
	?ddsdebug@@3HA
	?ddserror@@YAXPAD@Z
	?ddsin@@3PAU_iobuf@@A
	?ddsleng@@3HA
	?ddslex@@YAHXZ
	?ddslval@@3TYYSTYPE@@A
	?ddsnerrs@@3HA
	?ddsout@@3PAU_iobuf@@A
	?ddsparse@@YAHPAX@Z
	?ddsrestart@@YAXPAU_iobuf@@@Z
	?ddstext@@3PADA
	?ddx_end_document@DDXParser@@SAXPAV1@@Z
	?ddx_end_element@DDXParser@@SAXPAV1@PBD@Z
	?ddx_fatal_error@DDXParser@@SAXPAV1@PBDZZ
	?ddx_get_entity@DDXParser@@SAPAU_xmlEntity@@PAV1@PBE@Z
	?ddx_start_document@DDXParser@@SAXPAV1@@Z
	?ddx_start_element@DDXParser@@SAXPAV1@PBDPAPBD@Z
	?deallocate@?$allocator@H@std@@QAEXPAHI@Z
	?deallocate@?$allocator@PAPAVAttrTable@@@std@@QAEXPAPAPAVAttrTable@@I@Z
	?deallocate@?$allocator@PAPAVBaseType@@@std@@QAEXPAPAPAVBaseType@@I@Z
	?deallocate@?$allocator@PAUClause@@@std@@QAEXPAPAUClause@@I@Z
	?deallocate@?$allocator@PAUentry@AttrTable@@@std@@QAEXPAPAUentry@AttrTable@@I@Z
	?deallocate@?$allocator@PAV?$vector@HV?$allocator@H@std@@@std@@@std@@QAEXPAPAV?$vector@HV?$allocator@H@std@@@2@I@Z
	?deallocate@?$allocator@PAV?$vector@PAV?$vector@PAVBaseType@@V?$allocator@PAVBaseType@@@std@@@std@@V?$allocator@PAV?$vector@PAVBaseType@@V?$allocator@PAVBaseType@@@std@@@std@@@2@@std@@@std@@QAEXPAPAV?$vector@PAV?$vector@PAVBaseType@@V?$allocator@PAVBaseType@@@std@@@std@@V?$allocator@PAV?$vector@PAVBaseType@@V?$allocator@PAVBaseType@@@std@@@std@@@2@@2@I@Z
	?deallocate@?$allocator@PAV?$vector@PAVBaseType@@V?$allocator@PAVBaseType@@@std@@@std@@@std@@QAEXPAPAV?$vector@PAVBaseType@@V?$allocator@PAVBaseType@@@std@@@2@I@Z
	?deallocate@?$allocator@PAVAttrTable@@@std@@QAEXPAPAVAttrTable@@I@Z
	?deallocate@?$allocator@PAVBaseType@@@std@@QAEXPAPAVBaseType@@I@Z
	?deallocate@?$allocator@PAVGSEClause@@@std@@QAEXPAPAVGSEClause@@I@Z
	?deallocate@?$allocator@PAVrvalue@@@std@@QAEXPAPAVrvalue@@I@Z
	?deallocate@?$allocator@PAW4ParseState@DDXParser@@@std@@QAEXPAPAW4ParseState@DDXParser@@I@Z
	?deallocate@?$allocator@U_Node@?$_List_nod@Ufunction@ConstraintEvaluator@@V?$allocator@Ufunction@ConstraintEvaluator@@@std@@@std@@@std@@QAEXPAU_Node@?$_List_nod@Ufunction@ConstraintEvaluator@@V?$allocator@Ufunction@ConstraintEvaluator@@@std@@@2@I@Z
	?deallocate@?$allocator@U_Node@?$_Tree_nod@V?$_Tmap_traits@V?$basic_string@DU?$char_traits@D@std@@V?$allocator@D@2@@std@@V12@U?$less@V?$basic_string@DU?$char_traits@D@std@@V?$allocator@D@2@@std@@@2@V?$allocator@U?$pair@$$CBV?$basic_string@DU?$char_traits@D@std@@V?$allocator@D@2@@std@@V12@@std@@@2@$0A@@std@@@std@@@std@@QAEXPAU_Node@?$_Tree_nod@V?$_Tmap_traits@V?$basic_string@DU?$char_traits@D@std@@V?$allocator@D@2@@std@@V12@U?$less@V?$basic_string@DU?$char_traits@D@std@@V?$allocator@D@2@@std@@@2@V?$allocator@U?$pair@$$CBV?$basic_string@DU?$char_traits@D@std@@V?$allocator@D@2@@std@@V12@@std@@@2@$0A@@std@@@2@I@Z
	?deallocate@?$allocator@U_Node@?$_Tree_nod@V?$_Tset_traits@V?$basic_string@DU?$char_traits@D@std@@V?$allocator@D@2@@std@@U?$less@V?$basic_string@DU?$char_traits@D@std@@V?$allocator@D@2@@std@@@2@V?$allocator@V?$basic_string@DU?$char_traits@D@std@@V?$allocator@D@2@@std@@@2@$0A@@std@@@std@@@std@@QAEXPAU_Node@?$_Tree_nod@V?$_Tset_traits@V?$basic_string@DU?$char_traits@D@std@@V?$allocator@D@2@@std@@U?$less@V?$basic_string@DU?$char_traits@D@std@@V?$allocator@D@2@@std@@@2@V?$allocator@V?$basic_string@DU?$char_traits@D@std@@V?$allocator@D@2@@std@@@2@$0A@@std@@@2@I@Z
	?deallocate@?$allocator@Udimension@Array@@@std@@QAEXPAUdimension@Array@@I@Z
	?deallocate@?$allocator@V?$basic_string@DU?$char_traits@D@std@@V?$allocator@D@2@@std@@@std@@QAEXPAV?$basic_string@DU?$char_traits@D@std@@V?$allocator@D@2@@2@I@Z
	?dec@?$_Iosb@H@std@@2W4_Fmtflags@12@B
	?dec@std@@YAAAVios_base@1@AAV21@@Z
	?deflate_exists@@YA_NXZ
	?del_attr@AttrTable@@QAEXABV?$basic_string@DU?$char_traits@D@std@@V?$allocator@D@2@@std@@H@Z
	?del_attr_table@AttrTable@@QAE?AV?$_Vector_iterator@PAUentry@AttrTable@@V?$allocator@PAUentry@AttrTable@@@std@@@std@@V23@@Z
	?del_var@DDS@@QAEXABV?$basic_string@DU?$char_traits@D@std@@V?$allocator@D@2@@std@@@Z
	?del_var@DDS@@QAEXV?$_Vector_iterator@PAVBaseType@@V?$allocator@PAVBaseType@@@std@@@std@@0@Z
	?del_var@DDS@@QAEXV?$_Vector_iterator@PAVBaseType@@V?$allocator@PAVBaseType@@@std@@@std@@@Z
	?delete_array_indices@@YAXPAV?$vector@PAV?$vector@HV?$allocator@H@std@@@std@@V?$allocator@PAV?$vector@HV?$allocator@H@std@@@std@@@2@@std@@@Z
	?delete_attr_table@AttrTable@@AAEXXZ
	?delete_entry@entry@AttrTable@@QAEXXZ
	?delete_instance@SignalHandler@@CAXXZ
	?delete_xdrstdio@@YAXPAU__xdr_s@@@Z
	?deserialize@Byte@@UAE_NPAU__xdr_s@@PAVDDS@@_N@Z
	?deserialize@Float32@@UAE_NPAU__xdr_s@@PAVDDS@@_N@Z
	?deserialize@Float64@@UAE_NPAU__xdr_s@@PAVDDS@@_N@Z
	?deserialize@Grid@@UAE_NPAU__xdr_s@@PAVDDS@@_N@Z
	?deserialize@Int16@@UAE_NPAU__xdr_s@@PAVDDS@@_N@Z
	?deserialize@Int32@@UAE_NPAU__xdr_s@@PAVDDS@@_N@Z
	?deserialize@Sequence@@UAE_NPAU__xdr_s@@PAVDDS@@_N@Z
	?deserialize@Str@@UAE_NPAU__xdr_s@@PAVDDS@@_N@Z
	?deserialize@Structure@@UAE_NPAU__xdr_s@@PAVDDS@@_N@Z
	?deserialize@UInt16@@UAE_NPAU__xdr_s@@PAVDDS@@_N@Z
	?deserialize@UInt32@@UAE_NPAU__xdr_s@@PAVDDS@@_N@Z
	?deserialize@Vector@@UAE_NPAU__xdr_s@@PAVDDS@@_N@Z
	?destroy@?$allocator@PAPAVBaseType@@@std@@QAEXPAPAPAVBaseType@@@Z
	?destroy@?$allocator@PAU_Node@?$_List_nod@Ufunction@ConstraintEvaluator@@V?$allocator@Ufunction@ConstraintEvaluator@@@std@@@std@@@std@@QAEXPAPAU_Node@?$_List_nod@Ufunction@ConstraintEvaluator@@V?$allocator@Ufunction@ConstraintEvaluator@@@std@@@2@@Z
	?destroy@?$allocator@PAU_Node@?$_Tree_nod@V?$_Tset_traits@V?$basic_string@DU?$char_traits@D@std@@V?$allocator@D@2@@std@@U?$less@V?$basic_string@DU?$char_traits@D@std@@V?$allocator@D@2@@std@@@2@V?$allocator@V?$basic_string@DU?$char_traits@D@std@@V?$allocator@D@2@@std@@@2@$0A@@std@@@std@@@std@@QAEXPAPAU_Node@?$_Tree_nod@V?$_Tset_traits@V?$basic_string@DU?$char_traits@D@std@@V?$allocator@D@2@@std@@U?$less@V?$basic_string@DU?$char_traits@D@std@@V?$allocator@D@2@@std@@@2@V?$allocator@V?$basic_string@DU?$char_traits@D@std@@V?$allocator@D@2@@std@@@2@$0A@@std@@@2@@Z
	?destroy@?$allocator@PAVAttrTable@@@std@@QAEXPAPAVAttrTable@@@Z
	?destroy@?$allocator@PAVBaseType@@@std@@QAEXPAPAVBaseType@@@Z
	?destroy@?$allocator@U_Node@?$_List_nod@Ufunction@ConstraintEvaluator@@V?$allocator@Ufunction@ConstraintEvaluator@@@std@@@std@@@std@@QAEXPAU_Node@?$_List_nod@Ufunction@ConstraintEvaluator@@V?$allocator@Ufunction@ConstraintEvaluator@@@std@@@2@@Z
	?destroy@?$allocator@U_Node@?$_Tree_nod@V?$_Tmap_traits@V?$basic_string@DU?$char_traits@D@std@@V?$allocator@D@2@@std@@V12@U?$less@V?$basic_string@DU?$char_traits@D@std@@V?$allocator@D@2@@std@@@2@V?$allocator@U?$pair@$$CBV?$basic_string@DU?$char_traits@D@std@@V?$allocator@D@2@@std@@V12@@std@@@2@$0A@@std@@@std@@@std@@QAEXPAU_Node@?$_Tree_nod@V?$_Tmap_traits@V?$basic_string@DU?$char_traits@D@std@@V?$allocator@D@2@@std@@V12@U?$less@V?$basic_string@DU?$char_traits@D@std@@V?$allocator@D@2@@std@@@2@V?$allocator@U?$pair@$$CBV?$basic_string@DU?$char_traits@D@std@@V?$allocator@D@2@@std@@V12@@std@@@2@$0A@@std@@@2@@Z
	?destroy@?$allocator@U_Node@?$_Tree_nod@V?$_Tset_traits@V?$basic_string@DU?$char_traits@D@std@@V?$allocator@D@2@@std@@U?$less@V?$basic_string@DU?$char_traits@D@std@@V?$allocator@D@2@@std@@@2@V?$allocator@V?$basic_string@DU?$char_traits@D@std@@V?$allocator@D@2@@std@@@2@$0A@@std@@@std@@@std@@QAEXPAU_Node@?$_Tree_nod@V?$_Tset_traits@V?$basic_string@DU?$char_traits@D@std@@V?$allocator@D@2@@std@@U?$less@V?$basic_string@DU?$char_traits@D@std@@V?$allocator@D@2@@std@@@2@V?$allocator@V?$basic_string@DU?$char_traits@D@std@@V?$allocator@D@2@@std@@@2@$0A@@std@@@2@@Z
	?destroy@?$allocator@Udimension@Array@@@std@@QAEXPAUdimension@Array@@@Z
	?destroy@?$allocator@V?$basic_string@DU?$char_traits@D@std@@V?$allocator@D@2@@std@@@std@@QAEXPAV?$basic_string@DU?$char_traits@D@std@@V?$allocator@D@2@@2@@Z
	?destroy@?$allocator@W4ParseState@DDXParser@@@std@@QAEXPAW4ParseState@DDXParser@@@Z
	?dim_begin@Array@@QAE?AV?$_Vector_iterator@Udimension@Array@@V?$allocator@Udimension@Array@@@std@@@std@@XZ
	?dim_end@Array@@QAE?AV?$_Vector_iterator@Udimension@Array@@V?$allocator@Udimension@Array@@@std@@@std@@XZ
	?dimension_name@Array@@QAE?AV?$basic_string@DU?$char_traits@D@std@@V?$allocator@D@2@@std@@V?$_Vector_iterator@Udimension@Array@@V?$allocator@Udimension@Array@@@std@@@3@@Z
	?dimension_size@Array@@QAEHV?$_Vector_iterator@Udimension@Array@@V?$allocator@Udimension@Array@@@std@@@std@@_N@Z
	?dimension_start@Array@@QAEHV?$_Vector_iterator@Udimension@Array@@V?$allocator@Udimension@Array@@@std@@@std@@_N@Z
	?dimension_stop@Array@@QAEHV?$_Vector_iterator@Udimension@Array@@V?$allocator@Udimension@Array@@@std@@@std@@_N@Z
	?dimension_stride@Array@@QAEHV?$_Vector_iterator@Udimension@Array@@V?$allocator@Udimension@Array@@@std@@@std@@_N@Z
	?dimensions@Array@@QAEI_N@Z
	?dispatcher@SignalHandler@@CAXH@Z
	?dods_max@@YAIHH@Z
	?double_to_string@@YA?AV?$basic_string@DU?$char_traits@D@std@@V?$allocator@D@2@@std@@ABN@Z
	?downcase@@YAXAAV?$basic_string@DU?$char_traits@D@std@@V?$allocator@D@2@@std@@@Z
	?duplicate@DDS@@IAEXABV1@@Z
	?element_count@BaseType@@UAEH_N@Z
	?element_count@Grid@@UAEH_N@Z
	?element_count@Sequence@@UAEH_N@Z
	?element_count@Structure@@UAEH_N@Z
	?element_count@Vector@@UAEH_N@Z
	?empty@?$deque@PAVAttrTable@@V?$allocator@PAVAttrTable@@@std@@@std@@QBE_NXZ
	?empty@?$deque@PAVBaseType@@V?$allocator@PAVBaseType@@@std@@@std@@QBE_NXZ
	?empty@?$deque@W4ParseState@DDXParser@@V?$allocator@W4ParseState@DDXParser@@@std@@@std@@QBE_NXZ
	?empty@?$list@Ufunction@ConstraintEvaluator@@V?$allocator@Ufunction@ConstraintEvaluator@@@std@@@std@@QBE_NXZ
	?empty@?$stack@PAVBaseType@@V?$deque@PAVBaseType@@V?$allocator@PAVBaseType@@@std@@@std@@@std@@QBE_NXZ
	?empty@?$vector@PAUClause@@V?$allocator@PAUClause@@@std@@@std@@QBE_NXZ
	?empty@?$vector@PAV?$vector@PAV?$vector@PAVBaseType@@V?$allocator@PAVBaseType@@@std@@@std@@V?$allocator@PAV?$vector@PAVBaseType@@V?$allocator@PAVBaseType@@@std@@@std@@@2@@std@@V?$allocator@PAV?$vector@PAV?$vector@PAVBaseType@@V?$allocator@PAVBaseType@@@std@@@std@@V?$allocator@PAV?$vector@PAVBaseType@@V?$allocator@PAVBaseType@@@std@@@std@@@2@@std@@@2@@std@@QBE_NXZ
	?empty@?$vector@PAVAttrTable@@V?$allocator@PAVAttrTable@@@std@@@std@@QBE_NXZ
	?empty@?$vector@PAVBaseType@@V?$allocator@PAVBaseType@@@std@@@std@@QBE_NXZ
	?empty@?$vector@Udimension@Array@@V?$allocator@Udimension@Array@@@std@@@std@@QBE_NXZ
	?end@?$_Iosb@H@std@@2W4_Seekdir@12@B
	?end@?$_Tree@V?$_Tmap_traits@V?$basic_string@DU?$char_traits@D@std@@V?$allocator@D@2@@std@@V12@U?$less@V?$basic_string@DU?$char_traits@D@std@@V?$allocator@D@2@@std@@@2@V?$allocator@U?$pair@$$CBV?$basic_string@DU?$char_traits@D@std@@V?$allocator@D@2@@std@@V12@@std@@@2@$0A@@std@@@std@@QAE?AViterator@12@XZ
	?end@?$_Tree@V?$_Tset_traits@V?$basic_string@DU?$char_traits@D@std@@V?$allocator@D@2@@std@@U?$less@V?$basic_string@DU?$char_traits@D@std@@V?$allocator@D@2@@std@@@2@V?$allocator@V?$basic_string@DU?$char_traits@D@std@@V?$allocator@D@2@@std@@@2@$0A@@std@@@std@@QAE?AViterator@12@XZ
	?end@?$deque@PAVAttrTable@@V?$allocator@PAVAttrTable@@@std@@@std@@QAE?AV?$_Deque_iterator@PAVAttrTable@@V?$allocator@PAVAttrTable@@@std@@$00@2@XZ
	?end@?$deque@PAVBaseType@@V?$allocator@PAVBaseType@@@std@@@std@@QAE?AV?$_Deque_iterator@PAVBaseType@@V?$allocator@PAVBaseType@@@std@@$00@2@XZ
	?end@?$deque@W4ParseState@DDXParser@@V?$allocator@W4ParseState@DDXParser@@@std@@@std@@QBE?AV?$_Deque_const_iterator@W4ParseState@DDXParser@@V?$allocator@W4ParseState@DDXParser@@@std@@$00@2@XZ
	?end@?$list@Ufunction@ConstraintEvaluator@@V?$allocator@Ufunction@ConstraintEvaluator@@@std@@@std@@QAE?AV?$_Iterator@$00@12@XZ
	?end@?$list@Ufunction@ConstraintEvaluator@@V?$allocator@Ufunction@ConstraintEvaluator@@@std@@@std@@QBE?AV?$_Const_iterator@$00@12@XZ
	?end@?$vector@HV?$allocator@H@std@@@std@@QAE?AV?$_Vector_iterator@HV?$allocator@H@std@@@2@XZ
	?end@?$vector@PAUClause@@V?$allocator@PAUClause@@@std@@@std@@QAE?AV?$_Vector_iterator@PAUClause@@V?$allocator@PAUClause@@@std@@@2@XZ
	?end@?$vector@PAUentry@AttrTable@@V?$allocator@PAUentry@AttrTable@@@std@@@std@@QAE?AV?$_Vector_iterator@PAUentry@AttrTable@@V?$allocator@PAUentry@AttrTable@@@std@@@2@XZ
	?end@?$vector@PAUentry@AttrTable@@V?$allocator@PAUentry@AttrTable@@@std@@@std@@QBE?AV?$_Vector_const_iterator@PAUentry@AttrTable@@V?$allocator@PAUentry@AttrTable@@@std@@@2@XZ
	?end@?$vector@PAV?$vector@HV?$allocator@H@std@@@std@@V?$allocator@PAV?$vector@HV?$allocator@H@std@@@std@@@2@@std@@QAE?AV?$_Vector_iterator@PAV?$vector@HV?$allocator@H@std@@@std@@V?$allocator@PAV?$vector@HV?$allocator@H@std@@@std@@@2@@2@XZ
	?end@?$vector@PAV?$vector@PAV?$vector@PAVBaseType@@V?$allocator@PAVBaseType@@@std@@@std@@V?$allocator@PAV?$vector@PAVBaseType@@V?$allocator@PAVBaseType@@@std@@@std@@@2@@std@@V?$allocator@PAV?$vector@PAV?$vector@PAVBaseType@@V?$allocator@PAVBaseType@@@std@@@std@@V?$allocator@PAV?$vector@PAVBaseType@@V?$allocator@PAVBaseType@@@std@@@std@@@2@@std@@@2@@std@@QAE?AV?$_Vector_iterator@PAV?$vector@PAV?$vector@PAVBaseType@@V?$allocator@PAVBaseType@@@std@@@std@@V?$allocator@PAV?$vector@PAVBaseType@@V?$allocator@PAVBaseType@@@std@@@std@@@2@@std@@V?$allocator@PAV?$vector@PAV?$vector@PAVBaseType@@V?$allocator@PAVBaseType@@@std@@@std@@V?$allocator@PAV?$vector@PAVBaseType@@V?$allocator@PAVBaseType@@@std@@@std@@@2@@std@@@2@@2@XZ
	?end@?$vector@PAV?$vector@PAVBaseType@@V?$allocator@PAVBaseType@@@std@@@std@@V?$allocator@PAV?$vector@PAVBaseType@@V?$allocator@PAVBaseType@@@std@@@std@@@2@@std@@QAE?AV?$_Vector_iterator@PAV?$vector@PAVBaseType@@V?$allocator@PAVBaseType@@@std@@@std@@V?$allocator@PAV?$vector@PAVBaseType@@V?$allocator@PAVBaseType@@@std@@@std@@@2@@2@XZ
	?end@?$vector@PAV?$vector@PAVBaseType@@V?$allocator@PAVBaseType@@@std@@@std@@V?$allocator@PAV?$vector@PAVBaseType@@V?$allocator@PAVBaseType@@@std@@@std@@@2@@std@@QBE?AV?$_Vector_const_iterator@PAV?$vector@PAVBaseType@@V?$allocator@PAVBaseType@@@std@@@std@@V?$allocator@PAV?$vector@PAVBaseType@@V?$allocator@PAVBaseType@@@std@@@std@@@2@@2@XZ
	?end@?$vector@PAVAttrTable@@V?$allocator@PAVAttrTable@@@std@@@std@@QAE?AV?$_Vector_iterator@PAVAttrTable@@V?$allocator@PAVAttrTable@@@std@@@2@XZ
	?end@?$vector@PAVBaseType@@V?$allocator@PAVBaseType@@@std@@@std@@QAE?AV?$_Vector_iterator@PAVBaseType@@V?$allocator@PAVBaseType@@@std@@@2@XZ
	?end@?$vector@PAVBaseType@@V?$allocator@PAVBaseType@@@std@@@std@@QBE?AV?$_Vector_const_iterator@PAVBaseType@@V?$allocator@PAVBaseType@@@std@@@2@XZ
	?end@?$vector@PAVGSEClause@@V?$allocator@PAVGSEClause@@@std@@@std@@QAE?AV?$_Vector_iterator@PAVGSEClause@@V?$allocator@PAVGSEClause@@@std@@@2@XZ
	?end@?$vector@PAVGSEClause@@V?$allocator@PAVGSEClause@@@std@@@std@@QBE?AV?$_Vector_const_iterator@PAVGSEClause@@V?$allocator@PAVGSEClause@@@std@@@2@XZ
	?end@?$vector@PAVrvalue@@V?$allocator@PAVrvalue@@@std@@@std@@QAE?AV?$_Vector_iterator@PAVrvalue@@V?$allocator@PAVrvalue@@@std@@@2@XZ
	?end@?$vector@Udimension@Array@@V?$allocator@Udimension@Array@@@std@@@std@@QAE?AV?$_Vector_iterator@Udimension@Array@@V?$allocator@Udimension@Array@@@std@@@2@XZ
	?end@?$vector@V?$basic_string@DU?$char_traits@D@std@@V?$allocator@D@2@@std@@V?$allocator@V?$basic_string@DU?$char_traits@D@std@@V?$allocator@D@2@@std@@@2@@std@@QAE?AV?$_Vector_iterator@V?$basic_string@DU?$char_traits@D@std@@V?$allocator@D@2@@std@@V?$allocator@V?$basic_string@DU?$char_traits@D@std@@V?$allocator@D@2@@std@@@2@@2@XZ
	?end@?$vector@V?$basic_string@DU?$char_traits@D@std@@V?$allocator@D@2@@std@@V?$allocator@V?$basic_string@DU?$char_traits@D@std@@V?$allocator@D@2@@std@@@2@@std@@QBE?AV?$_Vector_const_iterator@V?$basic_string@DU?$char_traits@D@std@@V?$allocator@D@2@@std@@V?$allocator@V?$basic_string@DU?$char_traits@D@std@@V?$allocator@D@2@@std@@@2@@2@XZ
	?eofbit@?$_Iosb@H@std@@2W4_Iostate@12@B
	?eq@?$Cmp@EE@@SA_NEE@Z
	?eq@?$Cmp@EG@@SA_NEG@Z
	?eq@?$Cmp@EK@@SA_NEK@Z
	?eq@?$Cmp@EM@@SA_NEM@Z
	?eq@?$Cmp@EN@@SA_NEN@Z
	?eq@?$Cmp@FF@@SA_NFF@Z
	?eq@?$Cmp@FJ@@SA_NFJ@Z
	?eq@?$Cmp@FM@@SA_NFM@Z
	?eq@?$Cmp@FN@@SA_NFN@Z
	?eq@?$Cmp@GE@@SA_NGE@Z
	?eq@?$Cmp@GG@@SA_NGG@Z
	?eq@?$Cmp@GK@@SA_NGK@Z
	?eq@?$Cmp@GM@@SA_NGM@Z
	?eq@?$Cmp@GN@@SA_NGN@Z
	?eq@?$Cmp@JF@@SA_NJF@Z
	?eq@?$Cmp@JJ@@SA_NJJ@Z
	?eq@?$Cmp@JM@@SA_NJM@Z
	?eq@?$Cmp@JN@@SA_NJN@Z
	?eq@?$Cmp@KE@@SA_NKE@Z
	?eq@?$Cmp@KG@@SA_NKG@Z
	?eq@?$Cmp@KK@@SA_NKK@Z
	?eq@?$Cmp@KM@@SA_NKM@Z
	?eq@?$Cmp@KN@@SA_NKN@Z
	?eq@?$Cmp@ME@@SA_NME@Z
	?eq@?$Cmp@MF@@SA_NMF@Z
	?eq@?$Cmp@MG@@SA_NMG@Z
	?eq@?$Cmp@MJ@@SA_NMJ@Z
	?eq@?$Cmp@MK@@SA_NMK@Z
	?eq@?$Cmp@MM@@SA_NMM@Z
	?eq@?$Cmp@MN@@SA_NMN@Z
	?eq@?$Cmp@NE@@SA_NNE@Z
	?eq@?$Cmp@NF@@SA_NNF@Z
	?eq@?$Cmp@NG@@SA_NNG@Z
	?eq@?$Cmp@NJ@@SA_NNJ@Z
	?eq@?$Cmp@NK@@SA_NNK@Z
	?eq@?$Cmp@NM@@SA_NNM@Z
	?eq@?$Cmp@NN@@SA_NNN@Z
	?eq@?$SUCmp@FE@@SA_NFE@Z
	?eq@?$SUCmp@FG@@SA_NFG@Z
	?eq@?$SUCmp@FK@@SA_NFK@Z
	?eq@?$SUCmp@JE@@SA_NJE@Z
	?eq@?$SUCmp@JG@@SA_NJG@Z
	?eq@?$SUCmp@JK@@SA_NJK@Z
	?eq@?$StrCmp@V?$basic_string@DU?$char_traits@D@std@@V?$allocator@D@2@@std@@V12@@@SA_NV?$basic_string@DU?$char_traits@D@std@@V?$allocator@D@2@@std@@0@Z
	?eq@?$USCmp@EF@@SA_NEF@Z
	?eq@?$USCmp@EJ@@SA_NEJ@Z
	?eq@?$USCmp@GF@@SA_NGF@Z
	?eq@?$USCmp@GJ@@SA_NGJ@Z
	?eq@?$USCmp@KF@@SA_NKF@Z
	?eq@?$USCmp@KJ@@SA_NKJ@Z
	?erase@?$_Tree@V?$_Tset_traits@V?$basic_string@DU?$char_traits@D@std@@V?$allocator@D@2@@std@@U?$less@V?$basic_string@DU?$char_traits@D@std@@V?$allocator@D@2@@std@@@2@V?$allocator@V?$basic_string@DU?$char_traits@D@std@@V?$allocator@D@2@@std@@@2@$0A@@std@@@std@@QAE?AViterator@12@V312@0@Z
	?erase@?$_Tree@V?$_Tset_traits@V?$basic_string@DU?$char_traits@D@std@@V?$allocator@D@2@@std@@U?$less@V?$basic_string@DU?$char_traits@D@std@@V?$allocator@D@2@@std@@@2@V?$allocator@V?$basic_string@DU?$char_traits@D@std@@V?$allocator@D@2@@std@@@2@$0A@@std@@@std@@QAE?AViterator@12@V312@@Z
	?erase@?$list@Ufunction@ConstraintEvaluator@@V?$allocator@Ufunction@ConstraintEvaluator@@@std@@@std@@QAE?AV?$_Iterator@$00@12@V312@@Z
	?erase@?$vector@PAUentry@AttrTable@@V?$allocator@PAUentry@AttrTable@@@std@@@std@@QAE?AV?$_Vector_iterator@PAUentry@AttrTable@@V?$allocator@PAUentry@AttrTable@@@std@@@2@V32@0@Z
	?erase@?$vector@PAUentry@AttrTable@@V?$allocator@PAUentry@AttrTable@@@std@@@std@@QAE?AV?$_Vector_iterator@PAUentry@AttrTable@@V?$allocator@PAUentry@AttrTable@@@std@@@2@V32@@Z
	?erase@?$vector@PAV?$vector@PAVBaseType@@V?$allocator@PAVBaseType@@@std@@@std@@V?$allocator@PAV?$vector@PAVBaseType@@V?$allocator@PAVBaseType@@@std@@@std@@@2@@std@@QAE?AV?$_Vector_iterator@PAV?$vector@PAVBaseType@@V?$allocator@PAVBaseType@@@std@@@std@@V?$allocator@PAV?$vector@PAVBaseType@@V?$allocator@PAVBaseType@@@std@@@std@@@2@@2@V32@0@Z
	?erase@?$vector@PAVBaseType@@V?$allocator@PAVBaseType@@@std@@@std@@QAE?AV?$_Vector_iterator@PAVBaseType@@V?$allocator@PAVBaseType@@@std@@@2@V32@0@Z
	?erase@?$vector@PAVBaseType@@V?$allocator@PAVBaseType@@@std@@@std@@QAE?AV?$_Vector_iterator@PAVBaseType@@V?$allocator@PAVBaseType@@@std@@@2@V32@@Z
	?erase@?$vector@Udimension@Array@@V?$allocator@Udimension@Array@@@std@@@std@@QAE?AV?$_Vector_iterator@Udimension@Array@@V?$allocator@Udimension@Array@@@std@@@2@V32@0@Z
	?erase@?$vector@V?$basic_string@DU?$char_traits@D@std@@V?$allocator@D@2@@std@@V?$allocator@V?$basic_string@DU?$char_traits@D@std@@V?$allocator@D@2@@std@@@2@@std@@QAE?AV?$_Vector_iterator@V?$basic_string@DU?$char_traits@D@std@@V?$allocator@D@2@@std@@V?$allocator@V?$basic_string@DU?$char_traits@D@std@@V?$allocator@D@2@@std@@@2@@2@V32@0@Z
	?erase@?$vector@V?$basic_string@DU?$char_traits@D@std@@V?$allocator@D@2@@std@@V?$allocator@V?$basic_string@DU?$char_traits@D@std@@V?$allocator@D@2@@std@@@2@@std@@QAE?AV?$_Vector_iterator@V?$basic_string@DU?$char_traits@D@std@@V?$allocator@D@2@@std@@V?$allocator@V?$basic_string@DU?$char_traits@D@std@@V?$allocator@D@2@@std@@@2@@2@V32@@Z
	?erase@AttrTable@@QAEXXZ
	?error@parser_arg@@QAEPAVError@@XZ
	?error_exit_cleanup@@YAXXZ
	?error_line_num@@3HA
	?esc2underscore@@YA?AV?$basic_string@DU?$char_traits@D@std@@V?$allocator@D@2@@std@@V12@@Z
	?escattr@@YA?AV?$basic_string@DU?$char_traits@D@std@@V?$allocator@D@2@@std@@V12@@Z
	?eval_function@ConstraintEvaluator@@QAEPAVBaseType@@AAVDDS@@ABV?$basic_string@DU?$char_traits@D@std@@V?$allocator@D@2@@std@@@Z
	?eval_selection@ConstraintEvaluator@@QAE_NAAVDDS@@ABV?$basic_string@DU?$char_traits@D@std@@V?$allocator@D@2@@std@@@Z
	?exact_match@DDS@@IAEPAVBaseType@@ABV?$basic_string@DU?$char_traits@D@std@@V?$allocator@D@2@@std@@PAV?$stack@PAVBaseType@@V?$deque@PAVBaseType@@V?$allocator@PAVBaseType@@@std@@@std@@@4@@Z
	?exchange@GetOpt@@AAEXPAPAD@Z
	?extract_double_array@libdap@@YAPANPAVArray@@@Z
	?extract_double_value@libdap@@YANPAVBaseType@@@Z
	?extract_string_argument@libdap@@YA?AV?$basic_string@DU?$char_traits@D@std@@V?$allocator@D@2@@std@@PAVBaseType@@@Z
	?factory@DDXParser@@AAEPAVBaseType@@W4Type@@ABV?$basic_string@DU?$char_traits@D@std@@V?$allocator@D@2@@std@@@Z
	?failbit@?$_Iosb@H@std@@2W4_Iostate@12@B
	?file_to_string@@YA?AV?$basic_string@DU?$char_traits@D@std@@V?$allocator@D@2@@std@@PAU_iobuf@@@Z
	?filename@DDS@@QAE?AV?$basic_string@DU?$char_traits@D@std@@V?$allocator@D@2@@std@@XZ
	?filename@DDS@@QAEXABV?$basic_string@DU?$char_traits@D@std@@V?$allocator@D@2@@std@@@Z
	?find@?$_Tree@V?$_Tset_traits@V?$basic_string@DU?$char_traits@D@std@@V?$allocator@D@2@@std@@U?$less@V?$basic_string@DU?$char_traits@D@std@@V?$allocator@D@2@@std@@@2@V?$allocator@V?$basic_string@DU?$char_traits@D@std@@V?$allocator@D@2@@std@@@2@$0A@@std@@@std@@QAE?AViterator@12@ABV?$basic_string@DU?$char_traits@D@std@@V?$allocator@D@2@@2@@Z
	?find@AttrTable@@QAEXABV?$basic_string@DU?$char_traits@D@std@@V?$allocator@D@2@@std@@PAPAV1@PAV?$_Vector_iterator@PAUentry@AttrTable@@V?$allocator@PAUentry@AttrTable@@@std@@@3@@Z
	?find_container@AttrTable@@QAEPAV1@ABV?$basic_string@DU?$char_traits@D@std@@V?$allocator@D@2@@std@@@Z
	?find_function@ConstraintEvaluator@@QBE_NABV?$basic_string@DU?$char_traits@D@std@@V?$allocator@D@2@@std@@PAP6APAVBaseType@@HQAPAV4@AAVDDS@@0@Z@Z
	?find_function@ConstraintEvaluator@@QBE_NABV?$basic_string@DU?$char_traits@D@std@@V?$allocator@D@2@@std@@PAP6AXHQAPAVBaseType@@AAVDDS@@AAV1@@Z@Z
	?find_function@ConstraintEvaluator@@QBE_NABV?$basic_string@DU?$char_traits@D@std@@V?$allocator@D@2@@std@@PAP6A_NHQAPAVBaseType@@AAVDDS@@@Z@Z
	?find_lat_lon_maps@GridGeoConstraint@@EAE_NXZ
	?find_latitude_indeces@GeoConstraint@@IBEXNNW4LatitudeSense@1@AAH1@Z
	?find_longitude_indeces@GeoConstraint@@IBEXNNAAH0@Z
	?finish_variable@DDXParser@@AAEXPBDW4Type@@0@Z
	?first_nonopt@GetOpt@@0HA
	?fixed@?$_Iosb@H@std@@2W4_Fmtflags@12@B
	?floatfield@?$_Iosb@H@std@@2W4_Fmtflags@12@B
	?flush_stream@@YAXV?$basic_iostream@DU?$char_traits@D@std@@@std@@PAU_iobuf@@@Z
	?func_one@libdap@@YAPAVBaseType@@HQAPAV2@AAVDDS@@ABV?$basic_string@DU?$char_traits@D@std@@V?$allocator@D@2@@std@@@Z
	?function_geoarray@libdap@@YAPAVBaseType@@HQAPAV2@AAVDDS@@ABV?$basic_string@DU?$char_traits@D@std@@V?$allocator@D@2@@std@@@Z
	?function_geogrid@libdap@@YAPAVBaseType@@HQAPAV2@AAVDDS@@ABV?$basic_string@DU?$char_traits@D@std@@V?$allocator@D@2@@std@@@Z
	?function_grid@libdap@@YAPAVBaseType@@HQAPAV2@AAVDDS@@ABV?$basic_string@DU?$char_traits@D@std@@V?$allocator@D@2@@std@@@Z
	?function_linear_scale@libdap@@YAPAVBaseType@@HQAPAV2@AAVDDS@@ABV?$basic_string@DU?$char_traits@D@std@@V?$allocator@D@2@@std@@@Z
	?functional_expression@ConstraintEvaluator@@QAE_NXZ
	?ge@?$Cmp@EE@@SA_NEE@Z
	?ge@?$Cmp@EG@@SA_NEG@Z
	?ge@?$Cmp@EK@@SA_NEK@Z
	?ge@?$Cmp@EM@@SA_NEM@Z
	?ge@?$Cmp@EN@@SA_NEN@Z
	?ge@?$Cmp@FF@@SA_NFF@Z
	?ge@?$Cmp@FJ@@SA_NFJ@Z
	?ge@?$Cmp@FM@@SA_NFM@Z
	?ge@?$Cmp@FN@@SA_NFN@Z
	?ge@?$Cmp@GE@@SA_NGE@Z
	?ge@?$Cmp@GG@@SA_NGG@Z
	?ge@?$Cmp@GK@@SA_NGK@Z
	?ge@?$Cmp@GM@@SA_NGM@Z
	?ge@?$Cmp@GN@@SA_NGN@Z
	?ge@?$Cmp@JF@@SA_NJF@Z
	?ge@?$Cmp@JJ@@SA_NJJ@Z
	?ge@?$Cmp@JM@@SA_NJM@Z
	?ge@?$Cmp@JN@@SA_NJN@Z
	?ge@?$Cmp@KE@@SA_NKE@Z
	?ge@?$Cmp@KG@@SA_NKG@Z
	?ge@?$Cmp@KK@@SA_NKK@Z
	?ge@?$Cmp@KM@@SA_NKM@Z
	?ge@?$Cmp@KN@@SA_NKN@Z
	?ge@?$Cmp@ME@@SA_NME@Z
	?ge@?$Cmp@MF@@SA_NMF@Z
	?ge@?$Cmp@MG@@SA_NMG@Z
	?ge@?$Cmp@MJ@@SA_NMJ@Z
	?ge@?$Cmp@MK@@SA_NMK@Z
	?ge@?$Cmp@MM@@SA_NMM@Z
	?ge@?$Cmp@MN@@SA_NMN@Z
	?ge@?$Cmp@NE@@SA_NNE@Z
	?ge@?$Cmp@NF@@SA_NNF@Z
	?ge@?$Cmp@NG@@SA_NNG@Z
	?ge@?$Cmp@NJ@@SA_NNJ@Z
	?ge@?$Cmp@NK@@SA_NNK@Z
	?ge@?$Cmp@NM@@SA_NNM@Z
	?ge@?$Cmp@NN@@SA_NNN@Z
	?ge@?$SUCmp@FE@@SA_NFE@Z
	?ge@?$SUCmp@FG@@SA_NFG@Z
	?ge@?$SUCmp@FK@@SA_NFK@Z
	?ge@?$SUCmp@JE@@SA_NJE@Z
	?ge@?$SUCmp@JG@@SA_NJG@Z
	?ge@?$SUCmp@JK@@SA_NJK@Z
	?ge@?$StrCmp@V?$basic_string@DU?$char_traits@D@std@@V?$allocator@D@2@@std@@V12@@@SA_NV?$basic_string@DU?$char_traits@D@std@@V?$allocator@D@2@@std@@0@Z
	?ge@?$USCmp@EF@@SA_NEF@Z
	?ge@?$USCmp@EJ@@SA_NEJ@Z
	?ge@?$USCmp@GF@@SA_NGF@Z
	?ge@?$USCmp@GJ@@SA_NGJ@Z
	?ge@?$USCmp@KF@@SA_NKF@Z
	?ge@?$USCmp@KJ@@SA_NKJ@Z
	?get_allocator@?$_Tree@V?$_Tset_traits@V?$basic_string@DU?$char_traits@D@std@@V?$allocator@D@2@@std@@U?$less@V?$basic_string@DU?$char_traits@D@std@@V?$allocator@D@2@@std@@@2@V?$allocator@V?$basic_string@DU?$char_traits@D@std@@V?$allocator@D@2@@std@@@2@$0A@@std@@@std@@QBE?AV?$allocator@V?$basic_string@DU?$char_traits@D@std@@V?$allocator@D@2@@std@@@2@XZ
	?get_array@Grid@@QAEPAVArray@@XZ
	?get_attr@AttrTable@@QAE?AV?$basic_string@DU?$char_traits@D@std@@V?$allocator@D@2@@std@@ABV23@I@Z
	?get_attr@AttrTable@@QAE?AV?$basic_string@DU?$char_traits@D@std@@V?$allocator@D@2@@std@@V?$_Vector_iterator@PAUentry@AttrTable@@V?$allocator@PAUentry@AttrTable@@@std@@@3@I@Z
	?get_attr_iter@AttrTable@@QAE?AV?$_Vector_iterator@PAUentry@AttrTable@@V?$allocator@PAUentry@AttrTable@@@std@@@std@@H@Z
	?get_attr_num@AttrTable@@QAEIABV?$basic_string@DU?$char_traits@D@std@@V?$allocator@D@2@@std@@@Z
	?get_attr_num@AttrTable@@QAEIV?$_Vector_iterator@PAUentry@AttrTable@@V?$allocator@PAUentry@AttrTable@@@std@@@std@@@Z
	?get_attr_table@AttrTable@@QAEPAV1@ABV?$basic_string@DU?$char_traits@D@std@@V?$allocator@D@2@@std@@@Z
	?get_attr_table@AttrTable@@QAEPAV1@V?$_Vector_iterator@PAUentry@AttrTable@@V?$allocator@PAUentry@AttrTable@@@std@@@std@@@Z
	?get_attr_table@BaseType@@UAEAAVAttrTable@@XZ
	?get_attr_table@DDS@@UAEAAVAttrTable@@XZ
	?get_attr_type@AttrTable@@QAE?AW4AttrType@@ABV?$basic_string@DU?$char_traits@D@std@@V?$allocator@D@2@@std@@@Z
	?get_attr_type@AttrTable@@QAE?AW4AttrType@@V?$_Vector_iterator@PAUentry@AttrTable@@V?$allocator@PAUentry@AttrTable@@@std@@@std@@@Z
	?get_attr_vector@AttrTable@@QAEPAV?$vector@V?$basic_string@DU?$char_traits@D@std@@V?$allocator@D@2@@std@@V?$allocator@V?$basic_string@DU?$char_traits@D@std@@V?$allocator@D@2@@std@@@2@@std@@ABV?$basic_string@DU?$char_traits@D@std@@V?$allocator@D@2@@3@@Z
	?get_attr_vector@AttrTable@@QAEPAV?$vector@V?$basic_string@DU?$char_traits@D@std@@V?$allocator@D@2@@std@@V?$allocator@V?$basic_string@DU?$char_traits@D@std@@V?$allocator@D@2@@std@@@2@@std@@V?$_Vector_iterator@PAUentry@AttrTable@@V?$allocator@PAUentry@AttrTable@@@std@@@3@@Z
	?get_bounding_box_set@GeoConstraint@@QBE_NXZ
	?get_btp_function@@YAP6APAVBaseType@@HQAPAV1@AAVDDS@@ABV?$basic_string@DU?$char_traits@D@std@@V?$allocator@D@2@@std@@@ZABVConstraintEvaluator@@PBD@Z
	?get_coards_lat_units@GeoConstraint@@QBE?AV?$set@V?$basic_string@DU?$char_traits@D@std@@V?$allocator@D@2@@std@@U?$less@V?$basic_string@DU?$char_traits@D@std@@V?$allocator@D@2@@std@@@2@V?$allocator@V?$basic_string@DU?$char_traits@D@std@@V?$allocator@D@2@@std@@@2@@std@@XZ
	?get_coards_lon_units@GeoConstraint@@QBE?AV?$set@V?$basic_string@DU?$char_traits@D@std@@V?$allocator@D@2@@std@@U?$less@V?$basic_string@DU?$char_traits@D@std@@V?$allocator@D@2@@std@@@2@V?$allocator@V?$basic_string@DU?$char_traits@D@std@@V?$allocator@D@2@@std@@@2@@std@@XZ
	?get_constrained_grid@GridGeoConstraint@@UBEPAVGrid@@XZ
	?get_dataset@GeoConstraint@@QBE?AV?$basic_string@DU?$char_traits@D@std@@V?$allocator@D@2@@std@@XZ
	?get_dataset_name@DDS@@QBE?AV?$basic_string@DU?$char_traits@D@std@@V?$allocator@D@2@@std@@XZ
	?get_dds@ce_parser_arg@@QAEPAVDDS@@XZ
	?get_ending_row_number@Sequence@@UAEHXZ
	?get_error_code@Error@@QBEHXZ
	?get_error_message@Error@@QBE?AV?$basic_string@DU?$char_traits@D@std@@V?$allocator@D@2@@std@@XZ
	?get_eval@ce_parser_arg@@QAEPAVConstraintEvaluator@@XZ
	?get_factory@DDS@@QBEPAVBaseTypeFactory@@XZ
	?get_function@@YAP6A_NHQAPAVBaseType@@AAVDDS@@@ZABVConstraintEvaluator@@PBD@Z
	?get_grid@gse_arg@@QAEPAVGrid@@XZ
	?get_gsec@gse_arg@@QAEPAVGSEClause@@XZ
	?get_lat@GeoConstraint@@QBEPANXZ
	?get_lat_names@GeoConstraint@@QBE?AV?$set@V?$basic_string@DU?$char_traits@D@std@@V?$allocator@D@2@@std@@U?$less@V?$basic_string@DU?$char_traits@D@std@@V?$allocator@D@2@@std@@@2@V?$allocator@V?$basic_string@DU?$char_traits@D@std@@V?$allocator@D@2@@std@@@2@@std@@XZ
	?get_latitude_index_bottom@GeoConstraint@@QBEHXZ
	?get_latitude_index_top@GeoConstraint@@QBEHXZ
	?get_latitude_sense@GeoConstraint@@QBE?AW4LatitudeSense@1@XZ
	?get_lon@GeoConstraint@@QBEPANXZ
	?get_lon_length@GeoConstraint@@QBEHXZ
	?get_lon_names@GeoConstraint@@QBE?AV?$set@V?$basic_string@DU?$char_traits@D@std@@V?$allocator@D@2@@std@@U?$less@V?$basic_string@DU?$char_traits@D@std@@V?$allocator@D@2@@std@@@2@V?$allocator@V?$basic_string@DU?$char_traits@D@std@@V?$allocator@D@2@@std@@@2@@std@@XZ
	?get_longitude_index_left@GeoConstraint@@QBEHXZ
	?get_longitude_index_right@GeoConstraint@@QBEHXZ
	?get_longitude_notation@GeoConstraint@@QBE?AW4Notation@1@XZ
	?get_longitude_rightmost@GeoConstraint@@QBE_NXZ
	?get_map@GSEClause@@QBEPAVArray@@XZ
	?get_map_iter@Grid@@QAE?AV?$_Vector_iterator@PAVBaseType@@V?$allocator@PAVBaseType@@@std@@@std@@H@Z
	?get_map_max_value@GSEClause@@QBE?AV?$basic_string@DU?$char_traits@D@std@@V?$allocator@D@2@@std@@XZ
	?get_map_min_value@GSEClause@@QBE?AV?$basic_string@DU?$char_traits@D@std@@V?$allocator@D@2@@std@@XZ
	?get_map_name@GSEClause@@QBE?AV?$basic_string@DU?$char_traits@D@std@@V?$allocator@D@2@@std@@XZ
	?get_name@AttrTable@@QAE?AV?$basic_string@DU?$char_traits@D@std@@V?$allocator@D@2@@std@@V?$_Vector_iterator@PAUentry@AttrTable@@V?$allocator@PAUentry@AttrTable@@@std@@@3@@Z
	?get_name@AttrTable@@QBE?AV?$basic_string@DU?$char_traits@D@std@@V?$allocator@D@2@@std@@XZ
	?get_name@DAS@@QAE?AV?$basic_string@DU?$char_traits@D@std@@V?$allocator@D@2@@std@@AAV?$_Vector_iterator@PAUentry@AttrTable@@V?$allocator@PAUentry@AttrTable@@@std@@@3@@Z
	?get_parent@BaseType@@UAEPAV1@XZ
	?get_proj_function@@YAP6AXHQAPAVBaseType@@AAVDDS@@AAVConstraintEvaluator@@@ZABV3@PBD@Z
	?get_protocol@DataDDS@@QBE?AV?$basic_string@DU?$char_traits@D@std@@V?$allocator@D@2@@std@@XZ
	?get_protocol_major@DataDDS@@QBEHXZ
	?get_row_stride@Sequence@@UAEHXZ
	?get_size@AttrTable@@QBEIXZ
	?get_start@GSEClause@@QBEHXZ
	?get_starting_row_number@Sequence@@QAEHXZ
	?get_state@DDXParser@@ABE?AW4ParseState@1@XZ
	?get_stop@GSEClause@@QBEHXZ
	?get_table@DAS@@QAEPAVAttrTable@@AAV?$_Vector_iterator@PAUentry@AttrTable@@V?$allocator@PAUentry@AttrTable@@@std@@@std@@@Z
	?get_table@DAS@@QAEPAVAttrTable@@ABV?$basic_string@DU?$char_traits@D@std@@V?$allocator@D@2@@std@@@Z
	?get_tempfile_template@@YAPADPAD@Z
	?get_timeout@DDS@@QAEHXZ
	?get_type@AttrTable@@QAE?AV?$basic_string@DU?$char_traits@D@std@@V?$allocator@D@2@@std@@ABV23@@Z
	?get_type@AttrTable@@QAE?AV?$basic_string@DU?$char_traits@D@std@@V?$allocator@D@2@@std@@V?$_Vector_iterator@PAUentry@AttrTable@@V?$allocator@PAUentry@AttrTable@@@std@@@3@@Z
	?get_unsent_data@Sequence@@QAE_NXZ
	?get_var_index@Constructor@@QAEPAVBaseType@@H@Z
	?get_var_index@DDS@@QAEPAVBaseType@@H@Z
	?get_vars_iter@Constructor@@QAE?AV?$_Vector_iterator@PAVBaseType@@V?$allocator@PAVBaseType@@@std@@@std@@H@Z
	?get_vars_iter@DDS@@QAE?AV?$_Vector_iterator@PAVBaseType@@V?$allocator@PAVBaseType@@@std@@@std@@H@Z
	?goodbit@?$_Iosb@H@std@@2W4_Iostate@12@B
	?gr@?$Cmp@EE@@SA_NEE@Z
	?gr@?$Cmp@EG@@SA_NEG@Z
	?gr@?$Cmp@EK@@SA_NEK@Z
	?gr@?$Cmp@EM@@SA_NEM@Z
	?gr@?$Cmp@EN@@SA_NEN@Z
	?gr@?$Cmp@FF@@SA_NFF@Z
	?gr@?$Cmp@FJ@@SA_NFJ@Z
	?gr@?$Cmp@FM@@SA_NFM@Z
	?gr@?$Cmp@FN@@SA_NFN@Z
	?gr@?$Cmp@GE@@SA_NGE@Z
	?gr@?$Cmp@GG@@SA_NGG@Z
	?gr@?$Cmp@GK@@SA_NGK@Z
	?gr@?$Cmp@GM@@SA_NGM@Z
	?gr@?$Cmp@GN@@SA_NGN@Z
	?gr@?$Cmp@JF@@SA_NJF@Z
	?gr@?$Cmp@JJ@@SA_NJJ@Z
	?gr@?$Cmp@JM@@SA_NJM@Z
	?gr@?$Cmp@JN@@SA_NJN@Z
	?gr@?$Cmp@KE@@SA_NKE@Z
	?gr@?$Cmp@KG@@SA_NKG@Z
	?gr@?$Cmp@KK@@SA_NKK@Z
	?gr@?$Cmp@KM@@SA_NKM@Z
	?gr@?$Cmp@KN@@SA_NKN@Z
	?gr@?$Cmp@ME@@SA_NME@Z
	?gr@?$Cmp@MF@@SA_NMF@Z
	?gr@?$Cmp@MG@@SA_NMG@Z
	?gr@?$Cmp@MJ@@SA_NMJ@Z
	?gr@?$Cmp@MK@@SA_NMK@Z
	?gr@?$Cmp@MM@@SA_NMM@Z
	?gr@?$Cmp@MN@@SA_NMN@Z
	?gr@?$Cmp@NE@@SA_NNE@Z
	?gr@?$Cmp@NF@@SA_NNF@Z
	?gr@?$Cmp@NG@@SA_NNG@Z
	?gr@?$Cmp@NJ@@SA_NNJ@Z
	?gr@?$Cmp@NK@@SA_NNK@Z
	?gr@?$Cmp@NM@@SA_NNM@Z
	?gr@?$Cmp@NN@@SA_NNN@Z
	?gr@?$SUCmp@FE@@SA_NFE@Z
	?gr@?$SUCmp@FG@@SA_NFG@Z
	?gr@?$SUCmp@FK@@SA_NFK@Z
	?gr@?$SUCmp@JE@@SA_NJE@Z
	?gr@?$SUCmp@JG@@SA_NJG@Z
	?gr@?$SUCmp@JK@@SA_NJK@Z
	?gr@?$StrCmp@V?$basic_string@DU?$char_traits@D@std@@V?$allocator@D@2@@std@@V12@@@SA_NV?$basic_string@DU?$char_traits@D@std@@V?$allocator@D@2@@std@@0@Z
	?gr@?$USCmp@EF@@SA_NEF@Z
	?gr@?$USCmp@EJ@@SA_NEJ@Z
	?gr@?$USCmp@GF@@SA_NGF@Z
	?gr@?$USCmp@GJ@@SA_NGJ@Z
	?gr@?$USCmp@KF@@SA_NKF@Z
	?gr@?$USCmp@KJ@@SA_NKJ@Z
	?gse__create_buffer@@YAPAUyy_buffer_state@@PAU_iobuf@@H@Z
	?gse__delete_buffer@@YAXPAUyy_buffer_state@@@Z
	?gse__flush_buffer@@YAXPAUyy_buffer_state@@@Z
	?gse__init_buffer@@YAXPAUyy_buffer_state@@PAU_iobuf@@@Z
	?gse__load_buffer_state@@YAXXZ
	?gse__scan_buffer@@YAPAUyy_buffer_state@@PADI@Z
	?gse__scan_bytes@@YAPAUyy_buffer_state@@PBDH@Z
	?gse__scan_string@@YAPAUyy_buffer_state@@PBD@Z
	?gse__switch_to_buffer@@YAXPAUyy_buffer_state@@@Z
	?gse_char@@3HA
	?gse_debug@@3HA
	?gse_delete_buffer@@YAXPAX@Z
	?gse_error@@YAXPBD@Z
	?gse_in@@3PAU_iobuf@@A
	?gse_leng@@3HA
	?gse_lex@@YAHXZ
	?gse_lval@@3TYYSTYPE@@A
	?gse_nerrs@@3HA
	?gse_out@@3PAU_iobuf@@A
	?gse_parse@@YAHPAX@Z
	?gse_restart@@YAXPAU_iobuf@@@Z
	?gse_string@@YAPAXPBD@Z
	?gse_switch_to_buffer@@YAXPAX@Z
	?gse_text@@3PADA
	?hex@?$_Iosb@H@std@@2W4_Fmtflags@12@B
	?hex@std@@YAAAVios_base@1@AAV21@@Z
	?hexstring@@YA?AV?$basic_string@DU?$char_traits@D@std@@V?$allocator@D@2@@std@@E@Z
	?id2www@@YA?AV?$basic_string@DU?$char_traits@D@std@@V?$allocator@D@2@@std@@V12@ABV12@@Z
	?id2www_ce@@YA?AV?$basic_string@DU?$char_traits@D@std@@V?$allocator@D@2@@std@@V12@ABV12@@Z
	?id2xml@@YA?AV?$basic_string@DU?$char_traits@D@std@@V?$allocator@D@2@@std@@V12@ABV12@@Z
	?in@?$_Iosb@H@std@@2W4_Openmode@12@B
	?init@Regex@@AAEXPBD@Z
	?initialize_instance@SignalHandler@@CAXXZ
	?insert@?$_Tree@V?$_Tmap_traits@V?$basic_string@DU?$char_traits@D@std@@V?$allocator@D@2@@std@@V12@U?$less@V?$basic_string@DU?$char_traits@D@std@@V?$allocator@D@2@@std@@@2@V?$allocator@U?$pair@$$CBV?$basic_string@DU?$char_traits@D@std@@V?$allocator@D@2@@std@@V12@@std@@@2@$0A@@std@@@std@@QAE?AU?$pair@Viterator@?$_Tree@V?$_Tmap_traits@V?$basic_string@DU?$char_traits@D@std@@V?$allocator@D@2@@std@@V12@U?$less@V?$basic_string@DU?$char_traits@D@std@@V?$allocator@D@2@@std@@@2@V?$allocator@U?$pair@$$CBV?$basic_string@DU?$char_traits@D@std@@V?$allocator@D@2@@std@@V12@@std@@@2@$0A@@std@@@std@@_N@2@ABU?$pair@$$CBV?$basic_string@DU?$char_traits@D@std@@V?$allocator@D@2@@std@@V12@@2@@Z
	?insert@?$_Tree@V?$_Tmap_traits@V?$basic_string@DU?$char_traits@D@std@@V?$allocator@D@2@@std@@V12@U?$less@V?$basic_string@DU?$char_traits@D@std@@V?$allocator@D@2@@std@@@2@V?$allocator@U?$pair@$$CBV?$basic_string@DU?$char_traits@D@std@@V?$allocator@D@2@@std@@V12@@std@@@2@$0A@@std@@@std@@QAE?AViterator@12@V312@ABU?$pair@$$CBV?$basic_string@DU?$char_traits@D@std@@V?$allocator@D@2@@std@@V12@@2@@Z
	?insert@?$_Tree@V?$_Tset_traits@V?$basic_string@DU?$char_traits@D@std@@V?$allocator@D@2@@std@@U?$less@V?$basic_string@DU?$char_traits@D@std@@V?$allocator@D@2@@std@@@2@V?$allocator@V?$basic_string@DU?$char_traits@D@std@@V?$allocator@D@2@@std@@@2@$0A@@std@@@std@@QAE?AU?$pair@Viterator@?$_Tree@V?$_Tset_traits@V?$basic_string@DU?$char_traits@D@std@@V?$allocator@D@2@@std@@U?$less@V?$basic_string@DU?$char_traits@D@std@@V?$allocator@D@2@@std@@@2@V?$allocator@V?$basic_string@DU?$char_traits@D@std@@V?$allocator@D@2@@std@@@2@$0A@@std@@@std@@_N@2@ABV?$basic_string@DU?$char_traits@D@std@@V?$allocator@D@2@@2@@Z
	?insert@?$vector@HV?$allocator@H@std@@@std@@QAE?AV?$_Vector_iterator@HV?$allocator@H@std@@@2@V32@ABH@Z
	?insert@?$vector@PAUClause@@V?$allocator@PAUClause@@@std@@@std@@QAE?AV?$_Vector_iterator@PAUClause@@V?$allocator@PAUClause@@@std@@@2@V32@ABQAUClause@@@Z
	?insert@?$vector@PAUentry@AttrTable@@V?$allocator@PAUentry@AttrTable@@@std@@@std@@QAE?AV?$_Vector_iterator@PAUentry@AttrTable@@V?$allocator@PAUentry@AttrTable@@@std@@@2@V32@ABQAUentry@AttrTable@@@Z
	?insert@?$vector@PAV?$vector@HV?$allocator@H@std@@@std@@V?$allocator@PAV?$vector@HV?$allocator@H@std@@@std@@@2@@std@@QAE?AV?$_Vector_iterator@PAV?$vector@HV?$allocator@H@std@@@std@@V?$allocator@PAV?$vector@HV?$allocator@H@std@@@std@@@2@@2@V32@ABQAV?$vector@HV?$allocator@H@std@@@2@@Z
	?insert@?$vector@PAV?$vector@PAV?$vector@PAVBaseType@@V?$allocator@PAVBaseType@@@std@@@std@@V?$allocator@PAV?$vector@PAVBaseType@@V?$allocator@PAVBaseType@@@std@@@std@@@2@@std@@V?$allocator@PAV?$vector@PAV?$vector@PAVBaseType@@V?$allocator@PAVBaseType@@@std@@@std@@V?$allocator@PAV?$vector@PAVBaseType@@V?$allocator@PAVBaseType@@@std@@@std@@@2@@std@@@2@@std@@QAE?AV?$_Vector_iterator@PAV?$vector@PAV?$vector@PAVBaseType@@V?$allocator@PAVBaseType@@@std@@@std@@V?$allocator@PAV?$vector@PAVBaseType@@V?$allocator@PAVBaseType@@@std@@@std@@@2@@std@@V?$allocator@PAV?$vector@PAV?$vector@PAVBaseType@@V?$allocator@PAVBaseType@@@std@@@std@@V?$allocator@PAV?$vector@PAVBaseType@@V?$allocator@PAVBaseType@@@std@@@std@@@2@@std@@@2@@2@V32@ABQAV?$vector@PAV?$vector@PAVBaseType@@V?$allocator@PAVBaseType@@@std@@@std@@V?$allocator@PAV?$vector@PAVBaseType@@V?$allocator@PAVBaseType@@@std@@@std@@@2@@2@@Z
	?insert@?$vector@PAV?$vector@PAVBaseType@@V?$allocator@PAVBaseType@@@std@@@std@@V?$allocator@PAV?$vector@PAVBaseType@@V?$allocator@PAVBaseType@@@std@@@std@@@2@@std@@QAE?AV?$_Vector_iterator@PAV?$vector@PAVBaseType@@V?$allocator@PAVBaseType@@@std@@@std@@V?$allocator@PAV?$vector@PAVBaseType@@V?$allocator@PAVBaseType@@@std@@@std@@@2@@2@V32@ABQAV?$vector@PAVBaseType@@V?$allocator@PAVBaseType@@@std@@@2@@Z
	?insert@?$vector@PAVAttrTable@@V?$allocator@PAVAttrTable@@@std@@@std@@QAE?AV?$_Vector_iterator@PAVAttrTable@@V?$allocator@PAVAttrTable@@@std@@@2@V32@ABQAVAttrTable@@@Z
	?insert@?$vector@PAVBaseType@@V?$allocator@PAVBaseType@@@std@@@std@@QAE?AV?$_Vector_iterator@PAVBaseType@@V?$allocator@PAVBaseType@@@std@@@2@V32@ABQAVBaseType@@@Z
	?insert@?$vector@PAVGSEClause@@V?$allocator@PAVGSEClause@@@std@@@std@@QAE?AV?$_Vector_iterator@PAVGSEClause@@V?$allocator@PAVGSEClause@@@std@@@2@V32@ABQAVGSEClause@@@Z
	?insert@?$vector@PAVrvalue@@V?$allocator@PAVrvalue@@@std@@@std@@QAE?AV?$_Vector_iterator@PAVrvalue@@V?$allocator@PAVrvalue@@@std@@@2@V32@ABQAVrvalue@@@Z
	?insert@?$vector@Udimension@Array@@V?$allocator@Udimension@Array@@@std@@@std@@QAE?AV?$_Vector_iterator@Udimension@Array@@V?$allocator@Udimension@Array@@@std@@@2@V32@ABUdimension@Array@@@Z
	?insert@?$vector@V?$basic_string@DU?$char_traits@D@std@@V?$allocator@D@2@@std@@V?$allocator@V?$basic_string@DU?$char_traits@D@std@@V?$allocator@D@2@@std@@@2@@std@@QAE?AV?$_Vector_iterator@V?$basic_string@DU?$char_traits@D@std@@V?$allocator@D@2@@std@@V?$allocator@V?$basic_string@DU?$char_traits@D@std@@V?$allocator@D@2@@std@@@2@@2@V32@ABV?$basic_string@DU?$char_traits@D@std@@V?$allocator@D@2@@2@@Z
	?instance@SignalHandler@@SAPAV1@XZ
	?intern@DDXParser@@QAEXABV?$basic_string@DU?$char_traits@D@std@@V?$allocator@D@2@@std@@PAVDDS@@PAV23@@Z
	?intern_stream@DDXParser@@QAEXPAU_iobuf@@PAVDDS@@PAV?$basic_string@DU?$char_traits@D@std@@V?$allocator@D@2@@std@@@Z
	?internal@?$_Iosb@H@std@@2W4_Fmtflags@12@B
	?invalid_declaration@@YAXPAUparser_arg@@V?$basic_string@DU?$char_traits@D@std@@V?$allocator@D@2@@std@@PAD2@Z
	?is_array_t@@YA_NPAVBaseType@@@Z
	?is_attribute_or_alias@DDXParser@@AAE_NPBDPAPBD@Z
	?is_constructor_type@BaseType@@UAE_NXZ
	?is_container@AttrTable@@QAE_NV?$_Vector_iterator@PAUentry@AttrTable@@V?$allocator@PAUentry@AttrTable@@@std@@@std@@@Z
	?is_end_of_rows@Sequence@@AAE_NH@Z
	?is_global_attr@DDS@@AAE_NV?$basic_string@DU?$char_traits@D@std@@V?$allocator@D@2@@std@@@Z
	?is_grid_t@@YA_NPAVBaseType@@@Z
	?is_in_selection@BaseType@@UAE_NXZ
	?is_keyword@@YA_NV?$basic_string@DU?$char_traits@D@std@@V?$allocator@D@2@@std@@ABV12@@Z
	?is_leaf_sequence@Sequence@@UAE_NXZ
	?is_linear@Constructor@@UAE_NXZ
	?is_linear@Sequence@@UAE_NXZ
	?is_linear@Structure@@UAE_NXZ
	?is_sequence_t@@YA_NPAVBaseType@@@Z
	?is_simple_type@BaseType@@UAE_NXZ
	?is_variable@DDXParser@@AAE_NPBDPAPBD@Z
	?is_vector_type@BaseType@@UAE_NXZ
	?key_comp@?$_Tree@V?$_Tset_traits@V?$basic_string@DU?$char_traits@D@std@@V?$allocator@D@2@@std@@U?$less@V?$basic_string@DU?$char_traits@D@std@@V?$allocator@D@2@@std@@@2@V?$allocator@V?$basic_string@DU?$char_traits@D@std@@V?$allocator@D@2@@std@@@2@$0A@@std@@@std@@QBE?AU?$less@V?$basic_string@DU?$char_traits@D@std@@V?$allocator@D@2@@std@@@2@XZ
	?last_nonopt@GetOpt@@0HA
	?lat_lon_dimensions_ok@GridGeoConstraint@@EAE_NXZ
	?le@?$Cmp@EE@@SA_NEE@Z
	?le@?$Cmp@EG@@SA_NEG@Z
	?le@?$Cmp@EK@@SA_NEK@Z
	?le@?$Cmp@EM@@SA_NEM@Z
	?le@?$Cmp@EN@@SA_NEN@Z
	?le@?$Cmp@FF@@SA_NFF@Z
	?le@?$Cmp@FJ@@SA_NFJ@Z
	?le@?$Cmp@FM@@SA_NFM@Z
	?le@?$Cmp@FN@@SA_NFN@Z
	?le@?$Cmp@GE@@SA_NGE@Z
	?le@?$Cmp@GG@@SA_NGG@Z
	?le@?$Cmp@GK@@SA_NGK@Z
	?le@?$Cmp@GM@@SA_NGM@Z
	?le@?$Cmp@GN@@SA_NGN@Z
	?le@?$Cmp@JF@@SA_NJF@Z
	?le@?$Cmp@JJ@@SA_NJJ@Z
	?le@?$Cmp@JM@@SA_NJM@Z
	?le@?$Cmp@JN@@SA_NJN@Z
	?le@?$Cmp@KE@@SA_NKE@Z
	?le@?$Cmp@KG@@SA_NKG@Z
	?le@?$Cmp@KK@@SA_NKK@Z
	?le@?$Cmp@KM@@SA_NKM@Z
	?le@?$Cmp@KN@@SA_NKN@Z
	?le@?$Cmp@ME@@SA_NME@Z
	?le@?$Cmp@MF@@SA_NMF@Z
	?le@?$Cmp@MG@@SA_NMG@Z
	?le@?$Cmp@MJ@@SA_NMJ@Z
	?le@?$Cmp@MK@@SA_NMK@Z
	?le@?$Cmp@MM@@SA_NMM@Z
	?le@?$Cmp@MN@@SA_NMN@Z
	?le@?$Cmp@NE@@SA_NNE@Z
	?le@?$Cmp@NF@@SA_NNF@Z
	?le@?$Cmp@NG@@SA_NNG@Z
	?le@?$Cmp@NJ@@SA_NNJ@Z
	?le@?$Cmp@NK@@SA_NNK@Z
	?le@?$Cmp@NM@@SA_NNM@Z
	?le@?$Cmp@NN@@SA_NNN@Z
	?le@?$SUCmp@FE@@SA_NFE@Z
	?le@?$SUCmp@FG@@SA_NFG@Z
	?le@?$SUCmp@FK@@SA_NFK@Z
	?le@?$SUCmp@JE@@SA_NJE@Z
	?le@?$SUCmp@JG@@SA_NJG@Z
	?le@?$SUCmp@JK@@SA_NJK@Z
	?le@?$StrCmp@V?$basic_string@DU?$char_traits@D@std@@V?$allocator@D@2@@std@@V12@@@SA_NV?$basic_string@DU?$char_traits@D@std@@V?$allocator@D@2@@std@@0@Z
	?le@?$USCmp@EF@@SA_NEF@Z
	?le@?$USCmp@EJ@@SA_NEJ@Z
	?le@?$USCmp@GF@@SA_NGF@Z
	?le@?$USCmp@GJ@@SA_NGJ@Z
	?le@?$USCmp@KF@@SA_NKF@Z
	?le@?$USCmp@KJ@@SA_NKJ@Z
	?leaf_match@DDS@@IAEPAVBaseType@@ABV?$basic_string@DU?$char_traits@D@std@@V?$allocator@D@2@@std@@PAV?$stack@PAVBaseType@@V?$deque@PAVBaseType@@V?$allocator@PAVBaseType@@@std@@@std@@@4@@Z
	?left@?$_Iosb@H@std@@2W4_Fmtflags@12@B
	?length@Sequence@@UAEHXZ
	?length@Str@@QAEIXZ
	?length@Vector@@UBEHXZ
	?libdap_root@@YAPBDXZ
	?long_to_string@@YA?AV?$basic_string@DU?$char_traits@D@std@@V?$allocator@D@2@@std@@JH@Z
	?lower_bound@?$_Tree@V?$_Tmap_traits@V?$basic_string@DU?$char_traits@D@std@@V?$allocator@D@2@@std@@V12@U?$less@V?$basic_string@DU?$char_traits@D@std@@V?$allocator@D@2@@std@@@2@V?$allocator@U?$pair@$$CBV?$basic_string@DU?$char_traits@D@std@@V?$allocator@D@2@@std@@V12@@std@@@2@$0A@@std@@@std@@QAE?AViterator@12@ABV?$basic_string@DU?$char_traits@D@std@@V?$allocator@D@2@@2@@Z
	?lower_bound@?$_Tree@V?$_Tset_traits@V?$basic_string@DU?$char_traits@D@std@@V?$allocator@D@2@@std@@U?$less@V?$basic_string@DU?$char_traits@D@std@@V?$allocator@D@2@@std@@@2@V?$allocator@V?$basic_string@DU?$char_traits@D@std@@V?$allocator@D@2@@std@@@2@$0A@@std@@@std@@QAE?AViterator@12@ABV?$basic_string@DU?$char_traits@D@std@@V?$allocator@D@2@@2@@Z
	?lt@?$Cmp@EE@@SA_NEE@Z
	?lt@?$Cmp@EG@@SA_NEG@Z
	?lt@?$Cmp@EK@@SA_NEK@Z
	?lt@?$Cmp@EM@@SA_NEM@Z
	?lt@?$Cmp@EN@@SA_NEN@Z
	?lt@?$Cmp@FF@@SA_NFF@Z
	?lt@?$Cmp@FJ@@SA_NFJ@Z
	?lt@?$Cmp@FM@@SA_NFM@Z
	?lt@?$Cmp@FN@@SA_NFN@Z
	?lt@?$Cmp@GE@@SA_NGE@Z
	?lt@?$Cmp@GG@@SA_NGG@Z
	?lt@?$Cmp@GK@@SA_NGK@Z
	?lt@?$Cmp@GM@@SA_NGM@Z
	?lt@?$Cmp@GN@@SA_NGN@Z
	?lt@?$Cmp@JF@@SA_NJF@Z
	?lt@?$Cmp@JJ@@SA_NJJ@Z
	?lt@?$Cmp@JM@@SA_NJM@Z
	?lt@?$Cmp@JN@@SA_NJN@Z
	?lt@?$Cmp@KE@@SA_NKE@Z
	?lt@?$Cmp@KG@@SA_NKG@Z
	?lt@?$Cmp@KK@@SA_NKK@Z
	?lt@?$Cmp@KM@@SA_NKM@Z
	?lt@?$Cmp@KN@@SA_NKN@Z
	?lt@?$Cmp@ME@@SA_NME@Z
	?lt@?$Cmp@MF@@SA_NMF@Z
	?lt@?$Cmp@MG@@SA_NMG@Z
	?lt@?$Cmp@MJ@@SA_NMJ@Z
	?lt@?$Cmp@MK@@SA_NMK@Z
	?lt@?$Cmp@MM@@SA_NMM@Z
	?lt@?$Cmp@MN@@SA_NMN@Z
	?lt@?$Cmp@NE@@SA_NNE@Z
	?lt@?$Cmp@NF@@SA_NNF@Z
	?lt@?$Cmp@NG@@SA_NNG@Z
	?lt@?$Cmp@NJ@@SA_NNJ@Z
	?lt@?$Cmp@NK@@SA_NNK@Z
	?lt@?$Cmp@NM@@SA_NNM@Z
	?lt@?$Cmp@NN@@SA_NNN@Z
	?lt@?$SUCmp@FE@@SA_NFE@Z
	?lt@?$SUCmp@FG@@SA_NFG@Z
	?lt@?$SUCmp@FK@@SA_NFK@Z
	?lt@?$SUCmp@JE@@SA_NJE@Z
	?lt@?$SUCmp@JG@@SA_NJG@Z
	?lt@?$SUCmp@JK@@SA_NJK@Z
	?lt@?$StrCmp@V?$basic_string@DU?$char_traits@D@std@@V?$allocator@D@2@@std@@V12@@@SA_NV?$basic_string@DU?$char_traits@D@std@@V?$allocator@D@2@@std@@0@Z
	?lt@?$USCmp@EF@@SA_NEF@Z
	?lt@?$USCmp@EJ@@SA_NEJ@Z
	?lt@?$USCmp@GF@@SA_NGF@Z
	?lt@?$USCmp@GJ@@SA_NGJ@Z
	?lt@?$USCmp@KF@@SA_NKF@Z
	?lt@?$USCmp@KJ@@SA_NKJ@Z
	?m_exact_match@Sequence@@AAEPAVBaseType@@ABV?$basic_string@DU?$char_traits@D@std@@V?$allocator@D@2@@std@@PAV?$stack@PAVBaseType@@V?$deque@PAVBaseType@@V?$allocator@PAVBaseType@@@std@@@std@@@4@@Z
	?m_exact_match@Structure@@AAEPAVBaseType@@ABV?$basic_string@DU?$char_traits@D@std@@V?$allocator@D@2@@std@@PAV?$stack@PAVBaseType@@V?$deque@PAVBaseType@@V?$allocator@PAVBaseType@@@std@@@std@@@4@@Z
	?m_leaf_match@Sequence@@AAEPAVBaseType@@ABV?$basic_string@DU?$char_traits@D@std@@V?$allocator@D@2@@std@@PAV?$stack@PAVBaseType@@V?$deque@PAVBaseType@@V?$allocator@PAVBaseType@@@std@@@std@@@4@@Z
	?m_leaf_match@Structure@@AAEPAVBaseType@@ABV?$basic_string@DU?$char_traits@D@std@@V?$allocator@D@2@@std@@PAV?$stack@PAVBaseType@@V?$deque@PAVBaseType@@V?$allocator@PAVBaseType@@@std@@@std@@@4@@Z
	?m_protocol_string_to_numbers@DataDDS@@AAEXXZ
	?m_version_string_to_numbers@DataDDS@@AAEXXZ
	?make_array_index@@YAPAV?$vector@HV?$allocator@H@std@@@std@@AAUvalue@@00@Z
	?make_array_index@@YAPAV?$vector@HV?$allocator@H@std@@@std@@AAUvalue@@0@Z
	?make_array_index@@YAPAV?$vector@HV?$allocator@H@std@@@std@@AAUvalue@@@Z
	?make_array_indices@@YAPAV?$vector@PAV?$vector@HV?$allocator@H@std@@@std@@V?$allocator@PAV?$vector@HV?$allocator@H@std@@@std@@@2@@std@@PAV?$vector@HV?$allocator@H@std@@@2@@Z
	?make_rvalue_list@@YAPAV?$vector@PAVrvalue@@V?$allocator@PAVrvalue@@@std@@@std@@PAVrvalue@@@Z
	?make_variable@@YAPAVBaseType@@AAVDDS@@AAVConstraintEvaluator@@ABUvalue@@@Z
	?map_begin@Grid@@QAE?AV?$_Vector_iterator@PAVBaseType@@V?$allocator@PAVBaseType@@@std@@@std@@XZ
	?map_end@Grid@@QAE?AV?$_Vector_iterator@PAVBaseType@@V?$allocator@PAVBaseType@@@std@@@std@@XZ
	?map_rbegin@Grid@@QAE?AV?$reverse_iterator@V?$_Vector_iterator@PAVBaseType@@V?$allocator@PAVBaseType@@@std@@@std@@@std@@XZ
	?map_rend@Grid@@QAE?AV?$reverse_iterator@V?$_Vector_iterator@PAVBaseType@@V?$allocator@PAVBaseType@@@std@@@std@@@std@@XZ
	?mark@DDS@@QAE_NABV?$basic_string@DU?$char_traits@D@std@@V?$allocator@D@2@@std@@_N@Z
	?mark_all@DDS@@QAEX_N@Z
	?match@Regex@@QAEHPBDHH@Z
	?max_size@?$_Tree@V?$_Tmap_traits@V?$basic_string@DU?$char_traits@D@std@@V?$allocator@D@2@@std@@V12@U?$less@V?$basic_string@DU?$char_traits@D@std@@V?$allocator@D@2@@std@@@2@V?$allocator@U?$pair@$$CBV?$basic_string@DU?$char_traits@D@std@@V?$allocator@D@2@@std@@V12@@std@@@2@$0A@@std@@@std@@QBEIXZ
	?max_size@?$_Tree@V?$_Tset_traits@V?$basic_string@DU?$char_traits@D@std@@V?$allocator@D@2@@std@@U?$less@V?$basic_string@DU?$char_traits@D@std@@V?$allocator@D@2@@std@@@2@V?$allocator@V?$basic_string@DU?$char_traits@D@std@@V?$allocator@D@2@@std@@@2@$0A@@std@@@std@@QBEIXZ
	?max_size@?$allocator@H@std@@QBEIXZ
	?max_size@?$allocator@PAUClause@@@std@@QBEIXZ
	?max_size@?$allocator@PAUentry@AttrTable@@@std@@QBEIXZ
	?max_size@?$allocator@PAV?$vector@HV?$allocator@H@std@@@std@@@std@@QBEIXZ
	?max_size@?$allocator@PAV?$vector@PAV?$vector@PAVBaseType@@V?$allocator@PAVBaseType@@@std@@@std@@V?$allocator@PAV?$vector@PAVBaseType@@V?$allocator@PAVBaseType@@@std@@@std@@@2@@std@@@std@@QBEIXZ
	?max_size@?$allocator@PAV?$vector@PAVBaseType@@V?$allocator@PAVBaseType@@@std@@@std@@@std@@QBEIXZ
	?max_size@?$allocator@PAVAttrTable@@@std@@QBEIXZ
	?max_size@?$allocator@PAVBaseType@@@std@@QBEIXZ
	?max_size@?$allocator@PAVGSEClause@@@std@@QBEIXZ
	?max_size@?$allocator@PAVrvalue@@@std@@QBEIXZ
	?max_size@?$allocator@U?$pair@$$CBV?$basic_string@DU?$char_traits@D@std@@V?$allocator@D@2@@std@@V12@@std@@@std@@QBEIXZ
	?max_size@?$allocator@Udimension@Array@@@std@@QBEIXZ
	?max_size@?$allocator@Ufunction@ConstraintEvaluator@@@std@@QBEIXZ
	?max_size@?$allocator@V?$basic_string@DU?$char_traits@D@std@@V?$allocator@D@2@@std@@@std@@QBEIXZ
	?max_size@?$allocator@W4ParseState@DDXParser@@@std@@QBEIXZ
	?max_size@?$deque@PAVAttrTable@@V?$allocator@PAVAttrTable@@@std@@@std@@QBEIXZ
	?max_size@?$deque@PAVBaseType@@V?$allocator@PAVBaseType@@@std@@@std@@QBEIXZ
	?max_size@?$deque@W4ParseState@DDXParser@@V?$allocator@W4ParseState@DDXParser@@@std@@@std@@QBEIXZ
	?max_size@?$list@Ufunction@ConstraintEvaluator@@V?$allocator@Ufunction@ConstraintEvaluator@@@std@@@std@@QBEIXZ
	?max_size@?$vector@HV?$allocator@H@std@@@std@@QBEIXZ
	?max_size@?$vector@PAUClause@@V?$allocator@PAUClause@@@std@@@std@@QBEIXZ
	?max_size@?$vector@PAUentry@AttrTable@@V?$allocator@PAUentry@AttrTable@@@std@@@std@@QBEIXZ
	?max_size@?$vector@PAV?$vector@HV?$allocator@H@std@@@std@@V?$allocator@PAV?$vector@HV?$allocator@H@std@@@std@@@2@@std@@QBEIXZ
	?max_size@?$vector@PAV?$vector@PAV?$vector@PAVBaseType@@V?$allocator@PAVBaseType@@@std@@@std@@V?$allocator@PAV?$vector@PAVBaseType@@V?$allocator@PAVBaseType@@@std@@@std@@@2@@std@@V?$allocator@PAV?$vector@PAV?$vector@PAVBaseType@@V?$allocator@PAVBaseType@@@std@@@std@@V?$allocator@PAV?$vector@PAVBaseType@@V?$allocator@PAVBaseType@@@std@@@std@@@2@@std@@@2@@std@@QBEIXZ
	?max_size@?$vector@PAV?$vector@PAVBaseType@@V?$allocator@PAVBaseType@@@std@@@std@@V?$allocator@PAV?$vector@PAVBaseType@@V?$allocator@PAVBaseType@@@std@@@std@@@2@@std@@QBEIXZ
	?max_size@?$vector@PAVAttrTable@@V?$allocator@PAVAttrTable@@@std@@@std@@QBEIXZ
	?max_size@?$vector@PAVBaseType@@V?$allocator@PAVBaseType@@@std@@@std@@QBEIXZ
	?max_size@?$vector@PAVGSEClause@@V?$allocator@PAVGSEClause@@@std@@@std@@QBEIXZ
	?max_size@?$vector@PAVrvalue@@V?$allocator@PAVrvalue@@@std@@@std@@QBEIXZ
	?max_size@?$vector@Udimension@Array@@V?$allocator@Udimension@Array@@@std@@@std@@QBEIXZ
	?max_size@?$vector@V?$basic_string@DU?$char_traits@D@std@@V?$allocator@D@2@@std@@V?$allocator@V?$basic_string@DU?$char_traits@D@std@@V?$allocator@D@2@@std@@@2@@std@@QBEIXZ
	?messages@?$_Locbase@H@std@@2HB
	?monetary@?$_Locbase@H@std@@2HB
	?munge_error_message@@YA?AV?$basic_string@DU?$char_traits@D@std@@V?$allocator@D@2@@std@@V12@@Z
	?name@BaseType@@QBE?AV?$basic_string@DU?$char_traits@D@std@@V?$allocator@D@2@@std@@XZ
	?ne@?$Cmp@EE@@SA_NEE@Z
	?ne@?$Cmp@EG@@SA_NEG@Z
	?ne@?$Cmp@EK@@SA_NEK@Z
	?ne@?$Cmp@EM@@SA_NEM@Z
	?ne@?$Cmp@EN@@SA_NEN@Z
	?ne@?$Cmp@FF@@SA_NFF@Z
	?ne@?$Cmp@FJ@@SA_NFJ@Z
	?ne@?$Cmp@FM@@SA_NFM@Z
	?ne@?$Cmp@FN@@SA_NFN@Z
	?ne@?$Cmp@GE@@SA_NGE@Z
	?ne@?$Cmp@GG@@SA_NGG@Z
	?ne@?$Cmp@GK@@SA_NGK@Z
	?ne@?$Cmp@GM@@SA_NGM@Z
	?ne@?$Cmp@GN@@SA_NGN@Z
	?ne@?$Cmp@JF@@SA_NJF@Z
	?ne@?$Cmp@JJ@@SA_NJJ@Z
	?ne@?$Cmp@JM@@SA_NJM@Z
	?ne@?$Cmp@JN@@SA_NJN@Z
	?ne@?$Cmp@KE@@SA_NKE@Z
	?ne@?$Cmp@KG@@SA_NKG@Z
	?ne@?$Cmp@KK@@SA_NKK@Z
	?ne@?$Cmp@KM@@SA_NKM@Z
	?ne@?$Cmp@KN@@SA_NKN@Z
	?ne@?$Cmp@ME@@SA_NME@Z
	?ne@?$Cmp@MF@@SA_NMF@Z
	?ne@?$Cmp@MG@@SA_NMG@Z
	?ne@?$Cmp@MJ@@SA_NMJ@Z
	?ne@?$Cmp@MK@@SA_NMK@Z
	?ne@?$Cmp@MM@@SA_NMM@Z
	?ne@?$Cmp@MN@@SA_NMN@Z
	?ne@?$Cmp@NE@@SA_NNE@Z
	?ne@?$Cmp@NF@@SA_NNF@Z
	?ne@?$Cmp@NG@@SA_NNG@Z
	?ne@?$Cmp@NJ@@SA_NNJ@Z
	?ne@?$Cmp@NK@@SA_NNK@Z
	?ne@?$Cmp@NM@@SA_NNM@Z
	?ne@?$Cmp@NN@@SA_NNN@Z
	?ne@?$SUCmp@FE@@SA_NFE@Z
	?ne@?$SUCmp@FG@@SA_NFG@Z
	?ne@?$SUCmp@FK@@SA_NFK@Z
	?ne@?$SUCmp@JE@@SA_NJE@Z
	?ne@?$SUCmp@JG@@SA_NJG@Z
	?ne@?$SUCmp@JK@@SA_NJK@Z
	?ne@?$StrCmp@V?$basic_string@DU?$char_traits@D@std@@V?$allocator@D@2@@std@@V12@@@SA_NV?$basic_string@DU?$char_traits@D@std@@V?$allocator@D@2@@std@@0@Z
	?ne@?$USCmp@EF@@SA_NEF@Z
	?ne@?$USCmp@EJ@@SA_NEJ@Z
	?ne@?$USCmp@GF@@SA_NGF@Z
	?ne@?$USCmp@GJ@@SA_NGJ@Z
	?ne@?$USCmp@KF@@SA_NKF@Z
	?ne@?$USCmp@KJ@@SA_NKJ@Z
	?new_xdrstdio@@YAPAU__xdr_s@@PAU_iobuf@@W4xdr_op@@@Z
	?nextchar@GetOpt@@0PADA
	?no_such_func@@YAXABV?$basic_string@DU?$char_traits@D@std@@V?$allocator@D@2@@std@@@Z
	?no_such_func@@YAXPAD@Z
	?no_such_ident@@YAXABV?$basic_string@DU?$char_traits@D@std@@V?$allocator@D@2@@std@@0@Z
	?no_such_ident@@YAXPAD0@Z
	?none@?$_Locbase@H@std@@2HB
	?num_var@DDS@@QAEHXZ
	?number_of_rows@Sequence@@UAEHXZ
	?numeric@?$_Locbase@H@std@@2HB
	?oct@?$_Iosb@H@std@@2W4_Fmtflags@12@B
	?oct@std@@YAAAVios_base@1@AAV21@@Z
	?octstring@@YA?AV?$basic_string@DU?$char_traits@D@std@@V?$allocator@D@2@@std@@E@Z
	?ops@BaseType@@UAE_NPAV1@HABV?$basic_string@DU?$char_traits@D@std@@V?$allocator@D@2@@std@@@Z
	?ops@Byte@@UAE_NPAVBaseType@@HABV?$basic_string@DU?$char_traits@D@std@@V?$allocator@D@2@@std@@@Z
	?ops@Float32@@UAE_NPAVBaseType@@HABV?$basic_string@DU?$char_traits@D@std@@V?$allocator@D@2@@std@@@Z
	?ops@Float64@@UAE_NPAVBaseType@@HABV?$basic_string@DU?$char_traits@D@std@@V?$allocator@D@2@@std@@@Z
	?ops@Int16@@UAE_NPAVBaseType@@HABV?$basic_string@DU?$char_traits@D@std@@V?$allocator@D@2@@std@@@Z
	?ops@Int32@@UAE_NPAVBaseType@@HABV?$basic_string@DU?$char_traits@D@std@@V?$allocator@D@2@@std@@@Z
	?ops@Str@@UAE_NPAVBaseType@@HABV?$basic_string@DU?$char_traits@D@std@@V?$allocator@D@2@@std@@@Z
	?ops@UInt16@@UAE_NPAVBaseType@@HABV?$basic_string@DU?$char_traits@D@std@@V?$allocator@D@2@@std@@@Z
	?ops@UInt32@@UAE_NPAVBaseType@@HABV?$basic_string@DU?$char_traits@D@std@@V?$allocator@D@2@@std@@@Z
	?out@?$_Iosb@H@std@@2W4_Openmode@12@B
	?parent_is_sequence@@YAPAVSequence@@AAVDDS@@PBD@Z
	?parse@DAS@@QAEXH@Z
	?parse@DAS@@QAEXPAU_iobuf@@@Z
	?parse@DAS@@QAEXV?$basic_string@DU?$char_traits@D@std@@V?$allocator@D@2@@std@@@Z
	?parse@DDS@@QAEXH@Z
	?parse@DDS@@QAEXPAU_iobuf@@@Z
	?parse@DDS@@QAEXV?$basic_string@DU?$char_traits@D@std@@V?$allocator@D@2@@std@@@Z
	?parse@Error@@QAE_NPAU_iobuf@@@Z
	?parse_constraint@ConstraintEvaluator@@QAEXABV?$basic_string@DU?$char_traits@D@std@@V?$allocator@D@2@@std@@AAVDDS@@@Z
	?parse_error@@YAXABV?$basic_string@DU?$char_traits@D@std@@V?$allocator@D@2@@std@@HPBD@Z
	?parse_error@@YAXPAUparser_arg@@PBDH1@Z
	?parse_error@@YAXPBDH0@Z
	?path_to_filename@@YA?AV?$basic_string@DU?$char_traits@D@std@@V?$allocator@D@2@@std@@V12@@Z
	?pop@?$stack@PAVAttrTable@@V?$deque@PAVAttrTable@@V?$allocator@PAVAttrTable@@@std@@@std@@@std@@QAEXXZ
	?pop@?$stack@PAVBaseType@@V?$deque@PAVBaseType@@V?$allocator@PAVBaseType@@@std@@@std@@@std@@QAEXXZ
	?pop@?$stack@W4ParseState@DDXParser@@V?$deque@W4ParseState@DDXParser@@V?$allocator@W4ParseState@DDXParser@@@std@@@std@@@std@@QAEXXZ
	?pop_back@?$deque@PAVAttrTable@@V?$allocator@PAVAttrTable@@@std@@@std@@QAEXXZ
	?pop_back@?$deque@PAVBaseType@@V?$allocator@PAVBaseType@@@std@@@std@@QAEXXZ
	?pop_back@?$deque@W4ParseState@DDXParser@@V?$allocator@W4ParseState@DDXParser@@@std@@@std@@QAEXXZ
	?pop_back@?$vector@PAV?$vector@PAV?$vector@PAVBaseType@@V?$allocator@PAVBaseType@@@std@@@std@@V?$allocator@PAV?$vector@PAVBaseType@@V?$allocator@PAVBaseType@@@std@@@std@@@2@@std@@V?$allocator@PAV?$vector@PAV?$vector@PAVBaseType@@V?$allocator@PAVBaseType@@@std@@@std@@V?$allocator@PAV?$vector@PAVBaseType@@V?$allocator@PAVBaseType@@@std@@@std@@@2@@std@@@2@@std@@QAEXXZ
	?pop_back@?$vector@PAVAttrTable@@V?$allocator@PAVAttrTable@@@std@@@std@@QAEXXZ
	?pop_state@DDXParser@@AAEXXZ
	?print@AttrTable@@QAEXPAU_iobuf@@V?$basic_string@DU?$char_traits@D@std@@V?$allocator@D@2@@std@@_N@Z
	?print@DAS@@QAEXPAU_iobuf@@_N@Z
	?print@DDS@@QAEXPAU_iobuf@@@Z
	?print@Error@@QBEXPAU_iobuf@@@Z
	?print_all_vals@Sequence@@UAEXPAU_iobuf@@PAU__xdr_s@@PAVDDS@@V?$basic_string@DU?$char_traits@D@std@@V?$allocator@D@2@@std@@_N@Z
	?print_all_vals@Structure@@UAEXPAU_iobuf@@PAU__xdr_s@@PAVDDS@@V?$basic_string@DU?$char_traits@D@std@@V?$allocator@D@2@@std@@_N@Z
	?print_array@Array@@AAEIPAU_iobuf@@IIQAI@Z
	?print_as_map_xml@Array@@UAEXPAU_iobuf@@V?$basic_string@DU?$char_traits@D@std@@V?$allocator@D@2@@std@@_N@Z
	?print_constrained@DDS@@QAEXPAU_iobuf@@@Z
	?print_decl@Array@@UAEXPAU_iobuf@@V?$basic_string@DU?$char_traits@D@std@@V?$allocator@D@2@@std@@_N22@Z
	?print_decl@BaseType@@UAEXPAU_iobuf@@V?$basic_string@DU?$char_traits@D@std@@V?$allocator@D@2@@std@@_N22@Z
	?print_decl@Constructor@@UAEXPAU_iobuf@@V?$basic_string@DU?$char_traits@D@std@@V?$allocator@D@2@@std@@_N22@Z
	?print_decl@Grid@@UAEXPAU_iobuf@@V?$basic_string@DU?$char_traits@D@std@@V?$allocator@D@2@@std@@_N22@Z
	?print_one_row@Sequence@@UAEXPAU_iobuf@@HV?$basic_string@DU?$char_traits@D@std@@V?$allocator@D@2@@std@@_N@Z
	?print_val@Array@@UAEXPAU_iobuf@@V?$basic_string@DU?$char_traits@D@std@@V?$allocator@D@2@@std@@_N@Z
	?print_val@Byte@@UAEXPAU_iobuf@@V?$basic_string@DU?$char_traits@D@std@@V?$allocator@D@2@@std@@_N@Z
	?print_val@Float32@@UAEXPAU_iobuf@@V?$basic_string@DU?$char_traits@D@std@@V?$allocator@D@2@@std@@_N@Z
	?print_val@Float64@@UAEXPAU_iobuf@@V?$basic_string@DU?$char_traits@D@std@@V?$allocator@D@2@@std@@_N@Z
	?print_val@Grid@@UAEXPAU_iobuf@@V?$basic_string@DU?$char_traits@D@std@@V?$allocator@D@2@@std@@_N@Z
	?print_val@Int16@@UAEXPAU_iobuf@@V?$basic_string@DU?$char_traits@D@std@@V?$allocator@D@2@@std@@_N@Z
	?print_val@Int32@@UAEXPAU_iobuf@@V?$basic_string@DU?$char_traits@D@std@@V?$allocator@D@2@@std@@_N@Z
	?print_val@Sequence@@UAEXPAU_iobuf@@V?$basic_string@DU?$char_traits@D@std@@V?$allocator@D@2@@std@@_N@Z
	?print_val@Str@@UAEXPAU_iobuf@@V?$basic_string@DU?$char_traits@D@std@@V?$allocator@D@2@@std@@_N@Z
	?print_val@Structure@@UAEXPAU_iobuf@@V?$basic_string@DU?$char_traits@D@std@@V?$allocator@D@2@@std@@_N@Z
	?print_val@UInt16@@UAEXPAU_iobuf@@V?$basic_string@DU?$char_traits@D@std@@V?$allocator@D@2@@std@@_N@Z
	?print_val@UInt32@@UAEXPAU_iobuf@@V?$basic_string@DU?$char_traits@D@std@@V?$allocator@D@2@@std@@_N@Z
	?print_val_by_rows@Sequence@@UAEXPAU_iobuf@@V?$basic_string@DU?$char_traits@D@std@@V?$allocator@D@2@@std@@_N2@Z
	?print_xml@Array@@UAEXPAU_iobuf@@V?$basic_string@DU?$char_traits@D@std@@V?$allocator@D@2@@std@@_N@Z
	?print_xml@AttrTable@@QAEXPAU_iobuf@@V?$basic_string@DU?$char_traits@D@std@@V?$allocator@D@2@@std@@_N@Z
	?print_xml@BaseType@@UAEXPAU_iobuf@@V?$basic_string@DU?$char_traits@D@std@@V?$allocator@D@2@@std@@_N@Z
	?print_xml@Constructor@@UAEXPAU_iobuf@@V?$basic_string@DU?$char_traits@D@std@@V?$allocator@D@2@@std@@_N@Z
	?print_xml@DDS@@QAEXPAU_iobuf@@_NABV?$basic_string@DU?$char_traits@D@std@@V?$allocator@D@2@@std@@@Z
	?print_xml@Grid@@UAEXPAU_iobuf@@V?$basic_string@DU?$char_traits@D@std@@V?$allocator@D@2@@std@@_N@Z
	?print_xml_core@Array@@IAEXPAU_iobuf@@V?$basic_string@DU?$char_traits@D@std@@V?$allocator@D@2@@std@@_N1@Z
	?process_array_indices@@YA_NPAVBaseType@@PAV?$vector@PAV?$vector@HV?$allocator@H@std@@@std@@V?$allocator@PAV?$vector@HV?$allocator@H@std@@@std@@@2@@std@@@Z
	?process_attribute_alias@DDXParser@@AAEXPAPBD@Z
	?process_attribute_element@DDXParser@@AAEXPAPBD@Z
	?process_blob@DDXParser@@AAEXPAPBD@Z
	?process_dimension@DDXParser@@AAEXPAPBD@Z
	?process_grid_indices@@YA_NPAVBaseType@@PAV?$vector@PAV?$vector@HV?$allocator@H@std@@@std@@V?$allocator@PAV?$vector@HV?$allocator@H@std@@@std@@@2@@std@@@Z
	?process_sequence_indices@@YA_NPAVBaseType@@PAV?$vector@PAV?$vector@HV?$allocator@H@std@@@std@@V?$allocator@PAV?$vector@HV?$allocator@H@std@@@std@@@2@@std@@@Z
	?process_variable@DDXParser@@AAEXW4Type@@W4ParseState@1@PAPBD@Z
	?projection_yields_grid@Grid@@UAE_NXZ
	?prune_spaces@@YA?AV?$basic_string@DU?$char_traits@D@std@@V?$allocator@D@2@@std@@ABV12@@Z
	?ptr_duplicate@Array@@UAEPAVBaseType@@XZ
	?ptr_duplicate@Byte@@UAEPAVBaseType@@XZ
	?ptr_duplicate@Float32@@UAEPAVBaseType@@XZ
	?ptr_duplicate@Float64@@UAEPAVBaseType@@XZ
	?ptr_duplicate@Grid@@UAEPAVBaseType@@XZ
	?ptr_duplicate@Int16@@UAEPAVBaseType@@XZ
	?ptr_duplicate@Int32@@UAEPAVBaseType@@XZ
	?ptr_duplicate@PassiveArray@@UAEPAVBaseType@@XZ
	?ptr_duplicate@PassiveByte@@UAEPAVBaseType@@XZ
	?ptr_duplicate@PassiveFloat32@@UAEPAVBaseType@@XZ
	?ptr_duplicate@PassiveFloat64@@UAEPAVBaseType@@XZ
	?ptr_duplicate@PassiveInt16@@UAEPAVBaseType@@XZ
	?ptr_duplicate@PassiveInt32@@UAEPAVBaseType@@XZ
	?ptr_duplicate@PassiveStr@@UAEPAVBaseType@@XZ
	?ptr_duplicate@PassiveStructure@@UAEPAVBaseType@@XZ
	?ptr_duplicate@PassiveUInt16@@UAEPAVBaseType@@XZ
	?ptr_duplicate@PassiveUInt32@@UAEPAVBaseType@@XZ
	?ptr_duplicate@PassiveUrl@@UAEPAVBaseType@@XZ
	?ptr_duplicate@Sequence@@UAEPAVBaseType@@XZ
	?ptr_duplicate@Str@@UAEPAVBaseType@@XZ
	?ptr_duplicate@Structure@@UAEPAVBaseType@@XZ
	?ptr_duplicate@UInt16@@UAEPAVBaseType@@XZ
	?ptr_duplicate@UInt32@@UAEPAVBaseType@@XZ
	?ptr_duplicate@Url@@UAEPAVBaseType@@XZ
	?push@?$stack@PAVAttrTable@@V?$deque@PAVAttrTable@@V?$allocator@PAVAttrTable@@@std@@@std@@@std@@QAEXABQAVAttrTable@@@Z
	?push@?$stack@PAVBaseType@@V?$deque@PAVBaseType@@V?$allocator@PAVBaseType@@@std@@@std@@@std@@QAEXABQAVBaseType@@@Z
	?push@?$stack@W4ParseState@DDXParser@@V?$deque@W4ParseState@DDXParser@@V?$allocator@W4ParseState@DDXParser@@@std@@@std@@@std@@QAEXABW4ParseState@DDXParser@@@Z
	?push_back@?$deque@PAVAttrTable@@V?$allocator@PAVAttrTable@@@std@@@std@@QAEXABQAVAttrTable@@@Z
	?push_back@?$deque@PAVBaseType@@V?$allocator@PAVBaseType@@@std@@@std@@QAEXABQAVBaseType@@@Z
	?push_back@?$deque@W4ParseState@DDXParser@@V?$allocator@W4ParseState@DDXParser@@@std@@@std@@QAEXABW4ParseState@DDXParser@@@Z
	?push_back@?$list@Ufunction@ConstraintEvaluator@@V?$allocator@Ufunction@ConstraintEvaluator@@@std@@@std@@QAEXABUfunction@ConstraintEvaluator@@@Z
	?push_back@?$vector@HV?$allocator@H@std@@@std@@QAEXABH@Z
	?push_back@?$vector@PAUClause@@V?$allocator@PAUClause@@@std@@@std@@QAEXABQAUClause@@@Z
	?push_back@?$vector@PAUentry@AttrTable@@V?$allocator@PAUentry@AttrTable@@@std@@@std@@QAEXABQAUentry@AttrTable@@@Z
	?push_back@?$vector@PAV?$vector@HV?$allocator@H@std@@@std@@V?$allocator@PAV?$vector@HV?$allocator@H@std@@@std@@@2@@std@@QAEXABQAV?$vector@HV?$allocator@H@std@@@2@@Z
	?push_back@?$vector@PAV?$vector@PAV?$vector@PAVBaseType@@V?$allocator@PAVBaseType@@@std@@@std@@V?$allocator@PAV?$vector@PAVBaseType@@V?$allocator@PAVBaseType@@@std@@@std@@@2@@std@@V?$allocator@PAV?$vector@PAV?$vector@PAVBaseType@@V?$allocator@PAVBaseType@@@std@@@std@@V?$allocator@PAV?$vector@PAVBaseType@@V?$allocator@PAVBaseType@@@std@@@std@@@2@@std@@@2@@std@@QAEXABQAV?$vector@PAV?$vector@PAVBaseType@@V?$allocator@PAVBaseType@@@std@@@std@@V?$allocator@PAV?$vector@PAVBaseType@@V?$allocator@PAVBaseType@@@std@@@std@@@2@@2@@Z
	?push_back@?$vector@PAV?$vector@PAVBaseType@@V?$allocator@PAVBaseType@@@std@@@std@@V?$allocator@PAV?$vector@PAVBaseType@@V?$allocator@PAVBaseType@@@std@@@std@@@2@@std@@QAEXABQAV?$vector@PAVBaseType@@V?$allocator@PAVBaseType@@@std@@@2@@Z
	?push_back@?$vector@PAVAttrTable@@V?$allocator@PAVAttrTable@@@std@@@std@@QAEXABQAVAttrTable@@@Z
	?push_back@?$vector@PAVBaseType@@V?$allocator@PAVBaseType@@@std@@@std@@QAEXABQAVBaseType@@@Z
	?push_back@?$vector@PAVGSEClause@@V?$allocator@PAVGSEClause@@@std@@@std@@QAEXABQAVGSEClause@@@Z
	?push_back@?$vector@PAVrvalue@@V?$allocator@PAVrvalue@@@std@@@std@@QAEXABQAVrvalue@@@Z
	?push_back@?$vector@Udimension@Array@@V?$allocator@Udimension@Array@@@std@@@std@@QAEXABUdimension@Array@@@Z
	?push_back@?$vector@V?$basic_string@DU?$char_traits@D@std@@V?$allocator@D@2@@std@@V?$allocator@V?$basic_string@DU?$char_traits@D@std@@V?$allocator@D@2@@std@@@2@@std@@QAEXABV?$basic_string@DU?$char_traits@D@std@@V?$allocator@D@2@@2@@Z
	?rbegin@?$vector@PAVBaseType@@V?$allocator@PAVBaseType@@@std@@@std@@QAE?AV?$reverse_iterator@V?$_Vector_iterator@PAVBaseType@@V?$allocator@PAVBaseType@@@std@@@std@@@2@XZ
	?re@?$Cmp@EE@@SA_NEE@Z
	?re@?$Cmp@EG@@SA_NEG@Z
	?re@?$Cmp@EK@@SA_NEK@Z
	?re@?$Cmp@EM@@SA_NEM@Z
	?re@?$Cmp@EN@@SA_NEN@Z
	?re@?$Cmp@FF@@SA_NFF@Z
	?re@?$Cmp@FJ@@SA_NFJ@Z
	?re@?$Cmp@FM@@SA_NFM@Z
	?re@?$Cmp@FN@@SA_NFN@Z
	?re@?$Cmp@GE@@SA_NGE@Z
	?re@?$Cmp@GG@@SA_NGG@Z
	?re@?$Cmp@GK@@SA_NGK@Z
	?re@?$Cmp@GM@@SA_NGM@Z
	?re@?$Cmp@GN@@SA_NGN@Z
	?re@?$Cmp@JF@@SA_NJF@Z
	?re@?$Cmp@JJ@@SA_NJJ@Z
	?re@?$Cmp@JM@@SA_NJM@Z
	?re@?$Cmp@JN@@SA_NJN@Z
	?re@?$Cmp@KE@@SA_NKE@Z
	?re@?$Cmp@KG@@SA_NKG@Z
	?re@?$Cmp@KK@@SA_NKK@Z
	?re@?$Cmp@KM@@SA_NKM@Z
	?re@?$Cmp@KN@@SA_NKN@Z
	?re@?$Cmp@ME@@SA_NME@Z
	?re@?$Cmp@MF@@SA_NMF@Z
	?re@?$Cmp@MG@@SA_NMG@Z
	?re@?$Cmp@MJ@@SA_NMJ@Z
	?re@?$Cmp@MK@@SA_NMK@Z
	?re@?$Cmp@MM@@SA_NMM@Z
	?re@?$Cmp@MN@@SA_NMN@Z
	?re@?$Cmp@NE@@SA_NNE@Z
	?re@?$Cmp@NF@@SA_NNF@Z
	?re@?$Cmp@NG@@SA_NNG@Z
	?re@?$Cmp@NJ@@SA_NNJ@Z
	?re@?$Cmp@NK@@SA_NNK@Z
	?re@?$Cmp@NM@@SA_NNM@Z
	?re@?$Cmp@NN@@SA_NNN@Z
	?re@?$SUCmp@FE@@SA_NFE@Z
	?re@?$SUCmp@FG@@SA_NFG@Z
	?re@?$SUCmp@FK@@SA_NFK@Z
	?re@?$SUCmp@JE@@SA_NJE@Z
	?re@?$SUCmp@JG@@SA_NJG@Z
	?re@?$SUCmp@JK@@SA_NJK@Z
	?re@?$StrCmp@V?$basic_string@DU?$char_traits@D@std@@V?$allocator@D@2@@std@@V12@@@SA_NV?$basic_string@DU?$char_traits@D@std@@V?$allocator@D@2@@std@@0@Z
	?re@?$USCmp@EF@@SA_NEF@Z
	?re@?$USCmp@EJ@@SA_NEJ@Z
	?re@?$USCmp@GF@@SA_NGF@Z
	?re@?$USCmp@GJ@@SA_NGJ@Z
	?re@?$USCmp@KF@@SA_NKF@Z
	?re@?$USCmp@KJ@@SA_NKJ@Z
	?read@BaseType@@UAE_NABV?$basic_string@DU?$char_traits@D@std@@V?$allocator@D@2@@std@@@Z
	?read@PassiveArray@@UAE_NABV?$basic_string@DU?$char_traits@D@std@@V?$allocator@D@2@@std@@@Z
	?read@PassiveByte@@UAE_NABV?$basic_string@DU?$char_traits@D@std@@V?$allocator@D@2@@std@@@Z
	?read@PassiveFloat32@@UAE_NABV?$basic_string@DU?$char_traits@D@std@@V?$allocator@D@2@@std@@@Z
	?read@PassiveFloat64@@UAE_NABV?$basic_string@DU?$char_traits@D@std@@V?$allocator@D@2@@std@@@Z
	?read@PassiveInt16@@UAE_NABV?$basic_string@DU?$char_traits@D@std@@V?$allocator@D@2@@std@@@Z
	?read@PassiveInt32@@UAE_NABV?$basic_string@DU?$char_traits@D@std@@V?$allocator@D@2@@std@@@Z
	?read@PassiveStr@@UAE_NABV?$basic_string@DU?$char_traits@D@std@@V?$allocator@D@2@@std@@@Z
	?read@PassiveStructure@@UAE_NABV?$basic_string@DU?$char_traits@D@std@@V?$allocator@D@2@@std@@@Z
	?read@PassiveUInt16@@UAE_NABV?$basic_string@DU?$char_traits@D@std@@V?$allocator@D@2@@std@@@Z
	?read@PassiveUInt32@@UAE_NABV?$basic_string@DU?$char_traits@D@std@@V?$allocator@D@2@@std@@@Z
	?read_p@BaseType@@UAE_NXZ
	?read_row@Sequence@@UAE_NHABV?$basic_string@DU?$char_traits@D@std@@V?$allocator@D@2@@std@@AAVDDS@@AAVConstraintEvaluator@@_N@Z
	?recurrsive_find@AttrTable@@QAEPAV1@ABV?$basic_string@DU?$char_traits@D@std@@V?$allocator@D@2@@std@@PAV?$_Vector_iterator@PAUentry@AttrTable@@V?$allocator@PAUentry@AttrTable@@@std@@@3@@Z
	?register_functions@libdap@@YAXAAVConstraintEvaluator@@@Z
	?register_handler@SignalHandler@@QAEPAVEventHandler@@HPAV2@_N@Z
	?remove_handler@SignalHandler@@QAEPAVEventHandler@@H@Z
	?remove_quotes@@YAXAAV?$basic_string@DU?$char_traits@D@std@@V?$allocator@D@2@@std@@@Z
	?rend@?$vector@PAVBaseType@@V?$allocator@PAVBaseType@@@std@@@std@@QAE?AV?$reverse_iterator@V?$_Vector_iterator@PAVBaseType@@V?$allocator@PAVBaseType@@@std@@@std@@@2@XZ
	?reorder_data_longitude_axis@GridGeoConstraint@@EAEXXZ
	?reorder_longitude_map@GeoConstraint@@IAEXH@Z
	?reset_constraint@Array@@QAEXXZ
	?reset_row_number@Sequence@@QAEXXZ
	?resize@?$vector@PAVBaseType@@V?$allocator@PAVBaseType@@@std@@@std@@QAEXI@Z
	?resize@?$vector@PAVBaseType@@V?$allocator@PAVBaseType@@@std@@@std@@QAEXIPAVBaseType@@@Z
	?resize@?$vector@V?$basic_string@DU?$char_traits@D@std@@V?$allocator@D@2@@std@@V?$allocator@V?$basic_string@DU?$char_traits@D@std@@V?$allocator@D@2@@std@@@2@@std@@QAEXI@Z
	?resize@?$vector@V?$basic_string@DU?$char_traits@D@std@@V?$allocator@D@2@@std@@V?$allocator@V?$basic_string@DU?$char_traits@D@std@@V?$allocator@D@2@@std@@@2@@std@@QAEXIV?$basic_string@DU?$char_traits@D@std@@V?$allocator@D@2@@2@@Z
	?right@?$_Iosb@H@std@@2W4_Fmtflags@12@B
	?row_value@Sequence@@UAEPAV?$vector@PAVBaseType@@V?$allocator@PAVBaseType@@@std@@@std@@I@Z
	?save_str@@YAXAAV?$basic_string@DU?$char_traits@D@std@@V?$allocator@D@2@@std@@PBDH@Z
	?save_str@@YAXPADPBDH@Z
	?scientific@?$_Iosb@H@std@@2W4_Fmtflags@12@B
	?search@Regex@@QAEHPBDHAAHH@Z
	?send_p@BaseType@@UAE_NXZ
	?serialize@Byte@@UAE_NABV?$basic_string@DU?$char_traits@D@std@@V?$allocator@D@2@@std@@AAVConstraintEvaluator@@AAVDDS@@PAU__xdr_s@@_N@Z
	?serialize@Float32@@UAE_NABV?$basic_string@DU?$char_traits@D@std@@V?$allocator@D@2@@std@@AAVConstraintEvaluator@@AAVDDS@@PAU__xdr_s@@_N@Z
	?serialize@Float64@@UAE_NABV?$basic_string@DU?$char_traits@D@std@@V?$allocator@D@2@@std@@AAVConstraintEvaluator@@AAVDDS@@PAU__xdr_s@@_N@Z
	?serialize@Grid@@UAE_NABV?$basic_string@DU?$char_traits@D@std@@V?$allocator@D@2@@std@@AAVConstraintEvaluator@@AAVDDS@@PAU__xdr_s@@_N@Z
	?serialize@Int16@@UAE_NABV?$basic_string@DU?$char_traits@D@std@@V?$allocator@D@2@@std@@AAVConstraintEvaluator@@AAVDDS@@PAU__xdr_s@@_N@Z
	?serialize@Int32@@UAE_NABV?$basic_string@DU?$char_traits@D@std@@V?$allocator@D@2@@std@@AAVConstraintEvaluator@@AAVDDS@@PAU__xdr_s@@_N@Z
	?serialize@Sequence@@UAE_NABV?$basic_string@DU?$char_traits@D@std@@V?$allocator@D@2@@std@@AAVConstraintEvaluator@@AAVDDS@@PAU__xdr_s@@_N@Z
	?serialize@Str@@UAE_NABV?$basic_string@DU?$char_traits@D@std@@V?$allocator@D@2@@std@@AAVConstraintEvaluator@@AAVDDS@@PAU__xdr_s@@_N@Z
	?serialize@Structure@@UAE_NABV?$basic_string@DU?$char_traits@D@std@@V?$allocator@D@2@@std@@AAVConstraintEvaluator@@AAVDDS@@PAU__xdr_s@@_N@Z
	?serialize@UInt16@@UAE_NABV?$basic_string@DU?$char_traits@D@std@@V?$allocator@D@2@@std@@AAVConstraintEvaluator@@AAVDDS@@PAU__xdr_s@@_N@Z
	?serialize@UInt32@@UAE_NABV?$basic_string@DU?$char_traits@D@std@@V?$allocator@D@2@@std@@AAVConstraintEvaluator@@AAVDDS@@PAU__xdr_s@@_N@Z
	?serialize@Vector@@UAE_NABV?$basic_string@DU?$char_traits@D@std@@V?$allocator@D@2@@std@@AAVConstraintEvaluator@@AAVDDS@@PAU__xdr_s@@_N@Z
	?serialize_leaf@Sequence@@MAE_NABV?$basic_string@DU?$char_traits@D@std@@V?$allocator@D@2@@std@@AAVDDS@@AAVConstraintEvaluator@@PAU__xdr_s@@_N@Z
	?serialize_parent_part_one@Sequence@@MAE_NABV?$basic_string@DU?$char_traits@D@std@@V?$allocator@D@2@@std@@AAVDDS@@AAVConstraintEvaluator@@PAU__xdr_s@@@Z
	?serialize_parent_part_two@Sequence@@MAEXABV?$basic_string@DU?$char_traits@D@std@@V?$allocator@D@2@@std@@AAVDDS@@AAVConstraintEvaluator@@PAU__xdr_s@@@Z
	?set_array_using_double@libdap@@YAXPAVArray@@PANH@Z
	?set_attr_table@BaseType@@UAEXABVAttrTable@@@Z
	?set_bounding_box@GeoConstraint@@QAEXNNNN@Z
	?set_bounding_box_latitude@GeoConstraint@@IAEXNN@Z
	?set_bounding_box_longitude@GeoConstraint@@IAEXNN@Z
	?set_dataset_name@DDS@@QAEXABV?$basic_string@DU?$char_traits@D@std@@V?$allocator@D@2@@std@@@Z
	?set_error@parser_arg@@QAEXPAVError@@@Z
	?set_error_code@Error@@QAEXH@Z
	?set_error_message@Error@@QAEXV?$basic_string@DU?$char_traits@D@std@@V?$allocator@D@2@@std@@@Z
	?set_gsec@gse_arg@@QAEXPAVGSEClause@@@Z
	?set_in_selection@BaseType@@UAEX_N@Z
	?set_in_selection@Grid@@UAEX_N@Z
	?set_in_selection@Sequence@@UAEX_N@Z
	?set_in_selection@Structure@@UAEX_N@Z
	?set_lat@GeoConstraint@@QAEXPAN@Z
	?set_lat_length@GeoConstraint@@QAEXH@Z
	?set_latitude_index_bottom@GeoConstraint@@QAEXH@Z
	?set_latitude_index_top@GeoConstraint@@QAEXH@Z
	?set_leaf_p@Sequence@@UAEX_N@Z
	?set_leaf_sequence@Sequence@@UAEXH@Z
	?set_leaf_sequence@Structure@@UAEXH@Z
	?set_length@Vector@@UAEXH@Z
	?set_lon@GeoConstraint@@QAEXPAN@Z
	?set_lon_length@GeoConstraint@@QAEXH@Z
	?set_longitude_index_left@GeoConstraint@@QAEXH@Z
	?set_longitude_index_right@GeoConstraint@@QAEXH@Z
	?set_longitude_rightmost@GeoConstraint@@QAEX_N@Z
	?set_map@GSEClause@@QAEXPAVArray@@@Z
	?set_name@AttrTable@@QAEXABV?$basic_string@DU?$char_traits@D@std@@V?$allocator@D@2@@std@@@Z
	?set_name@BaseType@@UAEXABV?$basic_string@DU?$char_traits@D@std@@V?$allocator@D@2@@std@@@Z
	?set_parent@BaseType@@UAEXPAV1@@Z
	?set_read_p@BaseType@@UAEX_N@Z
	?set_read_p@Grid@@UAEX_N@Z
	?set_read_p@Sequence@@UAEX_N@Z
	?set_read_p@Structure@@UAEX_N@Z
	?set_read_p@Vector@@UAEX_N@Z
	?set_row_number_constraint@Sequence@@UAEXHHH@Z
	?set_send_p@BaseType@@UAEX_N@Z
	?set_send_p@Grid@@UAEX_N@Z
	?set_send_p@Sequence@@UAEX_N@Z
	?set_send_p@Structure@@UAEX_N@Z
	?set_send_p@Vector@@UAEX_N@Z
	?set_start@GSEClause@@QAEXH@Z
	?set_state@DDXParser@@AAEXW4ParseState@1@@Z
	?set_status@parser_arg@@QAEXH@Z
	?set_stop@GSEClause@@QAEXH@Z
	?set_synthesized_p@BaseType@@UAEX_N@Z
	?set_timeout@DDS@@QAEXH@Z
	?set_type@BaseType@@QAEXABW4Type@@@Z
	?set_unsent_data@Sequence@@QAEX_N@Z
	?set_value@Byte@@UAE_NE@Z
	?set_value@Float32@@UAE_NM@Z
	?set_value@Float64@@UAE_NN@Z
	?set_value@Int16@@UAE_NF@Z
	?set_value@Int32@@UAE_NJ@Z
	?set_value@PassiveArray@@UAE_NPAEH@Z
	?set_value@PassiveArray@@UAE_NPAFH@Z
	?set_value@PassiveArray@@UAE_NPAGH@Z
	?set_value@PassiveArray@@UAE_NPAJH@Z
	?set_value@PassiveArray@@UAE_NPAKH@Z
	?set_value@PassiveArray@@UAE_NPAMH@Z
	?set_value@PassiveArray@@UAE_NPANH@Z
	?set_value@PassiveArray@@UAE_NPAV?$basic_string@DU?$char_traits@D@std@@V?$allocator@D@2@@std@@H@Z
	?set_value@PassiveByte@@UAE_NE@Z
	?set_value@PassiveFloat32@@UAE_NM@Z
	?set_value@PassiveFloat64@@UAE_NN@Z
	?set_value@PassiveInt16@@UAE_NF@Z
	?set_value@PassiveInt32@@UAE_NJ@Z
	?set_value@PassiveStr@@UAE_NABV?$basic_string@DU?$char_traits@D@std@@V?$allocator@D@2@@std@@@Z
	?set_value@PassiveUInt16@@UAE_NG@Z
	?set_value@PassiveUInt32@@UAE_NK@Z
	?set_value@Sequence@@UAEXAAV?$vector@PAV?$vector@PAVBaseType@@V?$allocator@PAVBaseType@@@std@@@std@@V?$allocator@PAV?$vector@PAVBaseType@@V?$allocator@PAVBaseType@@@std@@@std@@@2@@std@@@Z
	?set_value@Str@@UAE_NABV?$basic_string@DU?$char_traits@D@std@@V?$allocator@D@2@@std@@@Z
	?set_value@UInt16@@UAE_NG@Z
	?set_value@UInt32@@UAE_NK@Z
	?set_value@Vector@@UAE_NPAEH@Z
	?set_value@Vector@@UAE_NPAFH@Z
	?set_value@Vector@@UAE_NPAGH@Z
	?set_value@Vector@@UAE_NPAJH@Z
	?set_value@Vector@@UAE_NPAKH@Z
	?set_value@Vector@@UAE_NPAMH@Z
	?set_value@Vector@@UAE_NPANH@Z
	?set_value@Vector@@UAE_NPAV?$basic_string@DU?$char_traits@D@std@@V?$allocator@D@2@@std@@H@Z
	?set_vec@Vector@@QAEXIPAVBaseType@@@Z
	?set_xdrstdio@@YAPAU__xdr_s@@PAU1@PAU_iobuf@@W4xdr_op@@@Z
	?showbase@?$_Iosb@H@std@@2W4_Fmtflags@12@B
	?showpoint@?$_Iosb@H@std@@2W4_Fmtflags@12@B
	?showpos@?$_Iosb@H@std@@2W4_Fmtflags@12@B
	?simple_find@AttrTable@@AAE?AV?$_Vector_iterator@PAUentry@AttrTable@@V?$allocator@PAUentry@AttrTable@@@std@@@std@@ABV?$basic_string@DU?$char_traits@D@std@@V?$allocator@D@2@@3@@Z
	?simple_find_container@AttrTable@@AAEPAV1@ABV?$basic_string@DU?$char_traits@D@std@@V?$allocator@D@2@@std@@@Z
	?simple_print@AttrTable@@IAEXPAU_iobuf@@V?$basic_string@DU?$char_traits@D@std@@V?$allocator@D@2@@std@@V?$_Vector_iterator@PAUentry@AttrTable@@V?$allocator@PAUentry@AttrTable@@@std@@@4@_N@Z
	?size@?$_Tree@V?$_Tmap_traits@V?$basic_string@DU?$char_traits@D@std@@V?$allocator@D@2@@std@@V12@U?$less@V?$basic_string@DU?$char_traits@D@std@@V?$allocator@D@2@@std@@@2@V?$allocator@U?$pair@$$CBV?$basic_string@DU?$char_traits@D@std@@V?$allocator@D@2@@std@@V12@@std@@@2@$0A@@std@@@std@@QBEIXZ
	?size@?$_Tree@V?$_Tset_traits@V?$basic_string@DU?$char_traits@D@std@@V?$allocator@D@2@@std@@U?$less@V?$basic_string@DU?$char_traits@D@std@@V?$allocator@D@2@@std@@@2@V?$allocator@V?$basic_string@DU?$char_traits@D@std@@V?$allocator@D@2@@std@@@2@$0A@@std@@@std@@QBEIXZ
	?size@?$vector@HV?$allocator@H@std@@@std@@QBEIXZ
	?size@?$vector@PAUClause@@V?$allocator@PAUClause@@@std@@@std@@QBEIXZ
	?size@?$vector@PAUentry@AttrTable@@V?$allocator@PAUentry@AttrTable@@@std@@@std@@QBEIXZ
	?size@?$vector@PAV?$vector@HV?$allocator@H@std@@@std@@V?$allocator@PAV?$vector@HV?$allocator@H@std@@@std@@@2@@std@@QBEIXZ
	?size@?$vector@PAV?$vector@PAV?$vector@PAVBaseType@@V?$allocator@PAVBaseType@@@std@@@std@@V?$allocator@PAV?$vector@PAVBaseType@@V?$allocator@PAVBaseType@@@std@@@std@@@2@@std@@V?$allocator@PAV?$vector@PAV?$vector@PAVBaseType@@V?$allocator@PAVBaseType@@@std@@@std@@V?$allocator@PAV?$vector@PAVBaseType@@V?$allocator@PAVBaseType@@@std@@@std@@@2@@std@@@2@@std@@QBEIXZ
	?size@?$vector@PAV?$vector@PAVBaseType@@V?$allocator@PAVBaseType@@@std@@@std@@V?$allocator@PAV?$vector@PAVBaseType@@V?$allocator@PAVBaseType@@@std@@@std@@@2@@std@@QBEIXZ
	?size@?$vector@PAVAttrTable@@V?$allocator@PAVAttrTable@@@std@@@std@@QBEIXZ
	?size@?$vector@PAVBaseType@@V?$allocator@PAVBaseType@@@std@@@std@@QBEIXZ
	?size@?$vector@PAVGSEClause@@V?$allocator@PAVGSEClause@@@std@@@std@@QBEIXZ
	?size@?$vector@PAVrvalue@@V?$allocator@PAVrvalue@@@std@@@std@@QBEIXZ
	?size@?$vector@Udimension@Array@@V?$allocator@Udimension@Array@@@std@@@std@@QBEIXZ
	?size@?$vector@V?$basic_string@DU?$char_traits@D@std@@V?$allocator@D@2@@std@@V?$allocator@V?$basic_string@DU?$char_traits@D@std@@V?$allocator@D@2@@std@@@2@@std@@QBEIXZ
	?skipws@?$_Iosb@H@std@@2W4_Fmtflags@12@B
	?status@parser_arg@@QAEHXZ
	?store_integer@@YAXXZ
	?store_string@@YAXXZ
	?synthesized_p@BaseType@@UAE_NXZ
	?systime@@YA?AV?$basic_string@DU?$char_traits@D@std@@V?$allocator@D@2@@std@@XZ
	?tag_nested_sequences@DDS@@QAEXXZ
	?time@?$_Locbase@H@std@@2HB
	?timeout_off@DDS@@QAEXXZ
	?timeout_on@DDS@@QAEXXZ
	?toString@BaseType@@UAE?AV?$basic_string@DU?$char_traits@D@std@@V?$allocator@D@2@@std@@XZ
	?toString@Sequence@@UAE?AV?$basic_string@DU?$char_traits@D@std@@V?$allocator@D@2@@std@@XZ
	?top@?$stack@PAVAttrTable@@V?$deque@PAVAttrTable@@V?$allocator@PAVAttrTable@@@std@@@std@@@std@@QAEAAPAVAttrTable@@XZ
	?top@?$stack@PAVBaseType@@V?$deque@PAVBaseType@@V?$allocator@PAVBaseType@@@std@@@std@@@std@@QAEAAPAVBaseType@@XZ
	?top@?$stack@W4ParseState@DDXParser@@V?$deque@W4ParseState@DDXParser@@V?$allocator@W4ParseState@DDXParser@@@std@@@std@@@std@@QBEABW4ParseState@DDXParser@@XZ
	?transfer_attr@DDS@@IAEXPAVDAS@@PBUentry@AttrTable@@PAVBaseType@@ABV?$basic_string@DU?$char_traits@D@std@@V?$allocator@D@2@@std@@@Z
	?transfer_attr_table@DDS@@IAEXPAVDAS@@PAVAttrTable@@PAVBaseType@@ABV?$basic_string@DU?$char_traits@D@std@@V?$allocator@D@2@@std@@@Z
	?transfer_attr_table@DDS@@IAEXPAVDAS@@PAVAttrTable@@PAVConstructor@@ABV?$basic_string@DU?$char_traits@D@std@@V?$allocator@D@2@@std@@@Z
	?transfer_attributes@DDS@@UAEXPAVDAS@@@Z
	?transfer_attrs@DDXParser@@AAEXPAPBD@Z
	?transfer_data@Sequence@@UAEXABV?$basic_string@DU?$char_traits@D@std@@V?$allocator@D@2@@std@@AAVConstraintEvaluator@@AAVDDS@@@Z
	?transfer_data_for_leaf@Sequence@@MAEXABV?$basic_string@DU?$char_traits@D@std@@V?$allocator@D@2@@std@@AAVDDS@@AAVConstraintEvaluator@@AAV?$vector@PAV?$vector@PAV?$vector@PAVBaseType@@V?$allocator@PAVBaseType@@@std@@@std@@V?$allocator@PAV?$vector@PAVBaseType@@V?$allocator@PAVBaseType@@@std@@@std@@@2@@std@@V?$allocator@PAV?$vector@PAV?$vector@PAVBaseType@@V?$allocator@PAVBaseType@@@std@@@std@@V?$allocator@PAV?$vector@PAVBaseType@@V?$allocator@PAVBaseType@@@std@@@std@@@2@@std@@@2@@3@@Z
	?transfer_data_parent_part_one@Sequence@@MAEXABV?$basic_string@DU?$char_traits@D@std@@V?$allocator@D@2@@std@@AAVDDS@@AAVConstraintEvaluator@@AAV?$vector@PAV?$vector@PAV?$vector@PAVBaseType@@V?$allocator@PAVBaseType@@@std@@@std@@V?$allocator@PAV?$vector@PAVBaseType@@V?$allocator@PAVBaseType@@@std@@@std@@@2@@std@@V?$allocator@PAV?$vector@PAV?$vector@PAVBaseType@@V?$allocator@PAVBaseType@@@std@@@std@@V?$allocator@PAV?$vector@PAVBaseType@@V?$allocator@PAVBaseType@@@std@@@std@@@2@@std@@@2@@3@@Z
	?transfer_data_parent_part_two@Sequence@@MAEXABV?$basic_string@DU?$char_traits@D@std@@V?$allocator@D@2@@std@@AAVDDS@@AAVConstraintEvaluator@@AAV?$vector@PAV?$vector@PAV?$vector@PAVBaseType@@V?$allocator@PAVBaseType@@@std@@@std@@V?$allocator@PAV?$vector@PAVBaseType@@V?$allocator@PAVBaseType@@@std@@@std@@@2@@std@@V?$allocator@PAV?$vector@PAV?$vector@PAVBaseType@@V?$allocator@PAVBaseType@@@std@@@std@@V?$allocator@PAV?$vector@PAVBaseType@@V?$allocator@PAVBaseType@@@std@@@std@@@2@@std@@@2@@3@@Z
	?transfer_data_private@Sequence@@MAEXABV?$basic_string@DU?$char_traits@D@std@@V?$allocator@D@2@@std@@AAVConstraintEvaluator@@AAVDDS@@AAV?$vector@PAV?$vector@PAV?$vector@PAVBaseType@@V?$allocator@PAVBaseType@@@std@@@std@@V?$allocator@PAV?$vector@PAVBaseType@@V?$allocator@PAVBaseType@@@std@@@std@@@2@@std@@V?$allocator@PAV?$vector@PAV?$vector@PAVBaseType@@V?$allocator@PAVBaseType@@@std@@@std@@V?$allocator@PAV?$vector@PAVBaseType@@V?$allocator@PAVBaseType@@@std@@@std@@@2@@std@@@2@@3@@Z
	?transform_constraint_to_pos_notation@GeoConstraint@@IBEXAAN0@Z
	?transform_longitude_to_neg_pos_notation@GeoConstraint@@IAEXXZ
	?transform_longitude_to_pos_notation@GeoConstraint@@IAEXXZ
	?trunc@?$_Iosb@H@std@@2W4_Openmode@12@B
	?type@BaseType@@QBE?AW4Type@@XZ
	?type_name@BaseType@@QBE?AV?$basic_string@DU?$char_traits@D@std@@V?$allocator@D@2@@std@@XZ
	?unescattr@@YA?AV?$basic_string@DU?$char_traits@D@std@@V?$allocator@D@2@@std@@V12@@Z
	?unhexstring@@YA?AV?$basic_string@DU?$char_traits@D@std@@V?$allocator@D@2@@std@@V12@@Z
	?unique_names@@YA_NV?$vector@PAVBaseType@@V?$allocator@PAVBaseType@@@std@@@std@@ABV?$basic_string@DU?$char_traits@D@std@@V?$allocator@D@2@@2@1AAV32@@Z
	?unit_or_name_match@@YA_NV?$set@V?$basic_string@DU?$char_traits@D@std@@V?$allocator@D@2@@std@@U?$less@V?$basic_string@DU?$char_traits@D@std@@V?$allocator@D@2@@std@@@2@V?$allocator@V?$basic_string@DU?$char_traits@D@std@@V?$allocator@D@2@@std@@@2@@std@@0ABV?$basic_string@DU?$char_traits@D@std@@V?$allocator@D@2@@2@1@Z
	?unitbuf@?$_Iosb@H@std@@2W4_Fmtflags@12@B
	?unoctstring@@YA?AV?$basic_string@DU?$char_traits@D@std@@V?$allocator@D@2@@std@@V12@@Z
	?update_length@Array@@QAEXH@Z
	?uppercase@?$_Iosb@H@std@@2W4_Fmtflags@12@B
	?val2buf@Byte@@UAEIPAX_N@Z
	?val2buf@Float32@@UAEIPAX_N@Z
	?val2buf@Float64@@UAEIPAX_N@Z
	?val2buf@Grid@@UAEIPAX_N@Z
	?val2buf@Int16@@UAEIPAX_N@Z
	?val2buf@Int32@@UAEIPAX_N@Z
	?val2buf@Sequence@@UAEIPAX_N@Z
	?val2buf@Str@@UAEIPAX_N@Z
	?val2buf@Structure@@UAEIPAX_N@Z
	?val2buf@UInt16@@UAEIPAX_N@Z
	?val2buf@UInt32@@UAEIPAX_N@Z
	?val2buf@Vector@@UAEIPAX_N@Z
	?value@Byte@@UBEEXZ
	?value@Clause@@QAE_NABV?$basic_string@DU?$char_traits@D@std@@V?$allocator@D@2@@std@@AAVDDS@@@Z
	?value@Clause@@QAE_NABV?$basic_string@DU?$char_traits@D@std@@V?$allocator@D@2@@std@@AAVDDS@@PAPAVBaseType@@@Z
	?value@Float32@@UBEMXZ
	?value@Float64@@UBENXZ
	?value@Int16@@UBEFXZ
	?value@Int32@@UBEJXZ
	?value@Sequence@@UAE?AV?$vector@PAV?$vector@PAVBaseType@@V?$allocator@PAVBaseType@@@std@@@std@@V?$allocator@PAV?$vector@PAVBaseType@@V?$allocator@PAVBaseType@@@std@@@std@@@2@@std@@XZ
	?value@Str@@UBE?AV?$basic_string@DU?$char_traits@D@std@@V?$allocator@D@2@@std@@XZ
	?value@UInt16@@UBEGXZ
	?value@UInt32@@UBEKXZ
	?value@Vector@@UBEXAAV?$vector@V?$basic_string@DU?$char_traits@D@std@@V?$allocator@D@2@@std@@V?$allocator@V?$basic_string@DU?$char_traits@D@std@@V?$allocator@D@2@@std@@@2@@std@@@Z
	?value@Vector@@UBEXPAE@Z
	?value@Vector@@UBEXPAF@Z
	?value@Vector@@UBEXPAG@Z
	?value@Vector@@UBEXPAJ@Z
	?value@Vector@@UBEXPAK@Z
	?value@Vector@@UBEXPAM@Z
	?value@Vector@@UBEXPAN@Z
	?value_clause@Clause@@QAE_NXZ
	?value_name@rvalue@@QAE?AV?$basic_string@DU?$char_traits@D@std@@V?$allocator@D@2@@std@@XZ
	?var@BaseType@@UAEPAV1@ABV?$basic_string@DU?$char_traits@D@std@@V?$allocator@D@2@@std@@AAV?$stack@PAVBaseType@@V?$deque@PAVBaseType@@V?$allocator@PAVBaseType@@@std@@@std@@@3@@Z
	?var@BaseType@@UAEPAV1@ABV?$basic_string@DU?$char_traits@D@std@@V?$allocator@D@2@@std@@_NPAV?$stack@PAVBaseType@@V?$deque@PAVBaseType@@V?$allocator@PAVBaseType@@@std@@@std@@@3@@Z
	?var@DDS@@QAEPAVBaseType@@ABV?$basic_string@DU?$char_traits@D@std@@V?$allocator@D@2@@std@@AAV?$stack@PAVBaseType@@V?$deque@PAVBaseType@@V?$allocator@PAVBaseType@@@std@@@std@@@4@@Z
	?var@DDS@@QAEPAVBaseType@@ABV?$basic_string@DU?$char_traits@D@std@@V?$allocator@D@2@@std@@PAV?$stack@PAVBaseType@@V?$deque@PAVBaseType@@V?$allocator@PAVBaseType@@@std@@@std@@@4@@Z
	?var@Grid@@UAEPAVBaseType@@ABV?$basic_string@DU?$char_traits@D@std@@V?$allocator@D@2@@std@@AAV?$stack@PAVBaseType@@V?$deque@PAVBaseType@@V?$allocator@PAVBaseType@@@std@@@std@@@4@@Z
	?var@Grid@@UAEPAVBaseType@@ABV?$basic_string@DU?$char_traits@D@std@@V?$allocator@D@2@@std@@_NPAV?$stack@PAVBaseType@@V?$deque@PAVBaseType@@V?$allocator@PAVBaseType@@@std@@@std@@@4@@Z
	?var@Sequence@@UAEPAVBaseType@@ABV?$basic_string@DU?$char_traits@D@std@@V?$allocator@D@2@@std@@AAV?$stack@PAVBaseType@@V?$deque@PAVBaseType@@V?$allocator@PAVBaseType@@@std@@@std@@@4@@Z
	?var@Sequence@@UAEPAVBaseType@@ABV?$basic_string@DU?$char_traits@D@std@@V?$allocator@D@2@@std@@_NPAV?$stack@PAVBaseType@@V?$deque@PAVBaseType@@V?$allocator@PAVBaseType@@@std@@@std@@@4@@Z
	?var@Structure@@UAEPAVBaseType@@ABV?$basic_string@DU?$char_traits@D@std@@V?$allocator@D@2@@std@@AAV?$stack@PAVBaseType@@V?$deque@PAVBaseType@@V?$allocator@PAVBaseType@@@std@@@std@@@4@@Z
	?var@Structure@@UAEPAVBaseType@@ABV?$basic_string@DU?$char_traits@D@std@@V?$allocator@D@2@@std@@_NPAV?$stack@PAVBaseType@@V?$deque@PAVBaseType@@V?$allocator@PAVBaseType@@@std@@@std@@@4@@Z
	?var@Vector@@UAEPAVBaseType@@ABV?$basic_string@DU?$char_traits@D@std@@V?$allocator@D@2@@std@@AAV?$stack@PAVBaseType@@V?$deque@PAVBaseType@@V?$allocator@PAVBaseType@@@std@@@std@@@4@@Z
	?var@Vector@@UAEPAVBaseType@@ABV?$basic_string@DU?$char_traits@D@std@@V?$allocator@D@2@@std@@_NPAV?$stack@PAVBaseType@@V?$deque@PAVBaseType@@V?$allocator@PAVBaseType@@@std@@@std@@@4@@Z
	?var@Vector@@UAEPAVBaseType@@I@Z
	?var_begin@Constructor@@QAE?AV?$_Vector_iterator@PAVBaseType@@V?$allocator@PAVBaseType@@@std@@@std@@XZ
	?var_begin@DAS@@QAE?AV?$_Vector_iterator@PAUentry@AttrTable@@V?$allocator@PAUentry@AttrTable@@@std@@@std@@XZ
	?var_begin@DDS@@QAE?AV?$_Vector_iterator@PAVBaseType@@V?$allocator@PAVBaseType@@@std@@@std@@XZ
	?var_end@Constructor@@QAE?AV?$_Vector_iterator@PAVBaseType@@V?$allocator@PAVBaseType@@@std@@@std@@XZ
	?var_end@DAS@@QAE?AV?$_Vector_iterator@PAUentry@AttrTable@@V?$allocator@PAUentry@AttrTable@@@std@@@std@@XZ
	?var_end@DDS@@QAE?AV?$_Vector_iterator@PAVBaseType@@V?$allocator@PAVBaseType@@@std@@@std@@XZ
	?var_rbegin@Constructor@@QAE?AV?$reverse_iterator@V?$_Vector_iterator@PAVBaseType@@V?$allocator@PAVBaseType@@@std@@@std@@@std@@XZ
	?var_rbegin@DDS@@QAE?AV?$reverse_iterator@V?$_Vector_iterator@PAVBaseType@@V?$allocator@PAVBaseType@@@std@@@std@@@std@@XZ
	?var_rend@Constructor@@QAE?AV?$reverse_iterator@V?$_Vector_iterator@PAVBaseType@@V?$allocator@PAVBaseType@@@std@@@std@@@std@@XZ
	?var_rend@DDS@@QAE?AV?$reverse_iterator@V?$_Vector_iterator@PAVBaseType@@V?$allocator@PAVBaseType@@@std@@@std@@@std@@XZ
	?var_value@Sequence@@UAEPAVBaseType@@IABV?$basic_string@DU?$char_traits@D@std@@V?$allocator@D@2@@std@@@Z
	?var_value@Sequence@@UAEPAVBaseType@@II@Z
	?vec_resize@Vector@@QAEXH@Z
	?w32strtod@@YANPBDPAPAD@Z
	?what@logic_error@std@@UBEPBDXZ
	?width@Byte@@UAEIXZ
	?width@Float32@@UAEIXZ
	?width@Float64@@UAEIXZ
	?width@Grid@@UAEIXZ
	?width@Int16@@UAEIXZ
	?width@Int32@@UAEIXZ
	?width@Sequence@@UAEIXZ
	?width@Str@@UAEIXZ
	?width@Structure@@UAEIXZ
	?width@UInt16@@UAEIXZ
	?width@UInt32@@UAEIXZ
	?width@Vector@@UAEIXZ
	?www2id@@YA?AV?$basic_string@DU?$char_traits@D@std@@V?$allocator@D@2@@std@@ABV12@00@Z
	?xdr_coder@BaseType@@QAEP6AHPAU__xdr_s@@PAPAD@ZXZ
	?xml2id@@YA?AV?$basic_string@DU?$char_traits@D@std@@V?$allocator@D@2@@std@@V12@@Z
	libdap_name
	libdap_version
	re_compile_fastmap
	re_compile_pattern
	re_match
	re_match_2
	re_search
	re_search_2
	re_set_registers
	re_set_syntax
	re_syntax_options
	regcomp
	regerror
	regexec
	regfree
	strcasecmp
	strncasecmp
	strnlen1
	xdr_str
	??0Error@@QAE@V?$basic_string@DU?$char_traits@D@std@@V?$allocator@D@2@@std@@@Z
	??0InternalErr@@QAE@ABV?$basic_string@DU?$char_traits@D@std@@V?$allocator@D@2@@std@@ABH0@Z
	??0Error@@QAE@XZ
	??1InternalErr@@UAE@XZ
	??1Error@@UAE@XZ
	??0Error@@QAE@ABV0@@Z
	??0InternalErr@@QAE@ABV0@@Z
	??1Regex@@QAE@XZ
	??0Regex@@QAE@PBD@Z
	??0InternalErr@@QAE@ABV?$basic_string@DU?$char_traits@D@std@@V?$allocator@D@2@@std@@@Z
	??0Error@@QAE@HV?$basic_string@DU?$char_traits@D@std@@V?$allocator@D@2@@std@@@Z
	??RGetOpt@@QAEHXZ
	??0GetOpt@@QAE@HPAPADPBD@Z	
	??1DDS@@UAE@XZ
	??0DDS@@QAE@PAVBaseTypeFactory@@ABV?$basic_string@DU?$char_traits@D@std@@V?$allocator@D@2@@std@@@Z
	??1DAS@@UAE@XZ
	??0DAS@@QAE@PAVAttrTable@@I@Z
	??0DataDDS@@QAE@PAVBaseTypeFactory@@ABV?$basic_string@DU?$char_traits@D@std@@V?$allocator@D@2@@std@@11@Z


	
		

