
EXPORTS
	??0AISConnect@@QAE@ABV?$basic_string@DU?$char_traits@D@std@@V?$allocator@D@2@@std@@0@Z
	??0AISConnect@@QAE@ABV?$basic_string@DU?$char_traits@D@std@@V?$allocator@D@2@@std@@@Z
	??0Array@@QAE@ABV0@@Z
	??0Array@@QAE@ABV?$basic_string@DU?$char_traits@D@std@@V?$allocator@D@2@@std@@PAVBaseType@@@Z
	??0AttrTable@@QAE@XZ
	??0Byte@@QAE@ABV0@@Z
	??0Byte@@QAE@ABV?$basic_string@DU?$char_traits@D@std@@V?$allocator@D@2@@std@@@Z
	??0Connect@@QAE@ABV?$basic_string@DU?$char_traits@D@std@@V?$allocator@D@2@@std@@V12@1@Z
	??0DAS@@QAE@PAVAttrTable@@I@Z
	??0DDS@@QAE@ABV0@@Z
	??0DDS@@QAE@ABV?$basic_string@DU?$char_traits@D@std@@V?$allocator@D@2@@std@@@Z
	??0DataDDS@@QAE@ABV?$basic_string@DU?$char_traits@D@std@@V?$allocator@D@2@@std@@0@Z
	??0Error@@QAE@ABV0@@Z
	??0Error@@QAE@XZ
	??0Float32@@QAE@ABV0@@Z
	??0Float32@@QAE@ABV?$basic_string@DU?$char_traits@D@std@@V?$allocator@D@2@@std@@@Z
	??0Float64@@QAE@ABV0@@Z
	??0Float64@@QAE@ABV?$basic_string@DU?$char_traits@D@std@@V?$allocator@D@2@@std@@@Z
	??0GetOpt@@QAE@HPAPADPBD@Z
	??0Grid@@QAE@ABV0@@Z
	??0Grid@@QAE@ABV?$basic_string@DU?$char_traits@D@std@@V?$allocator@D@2@@std@@@Z
	??0HTTPConnect@@QAE@PAVRCReader@@@Z
	??0Int16@@QAE@ABV0@@Z
	??0Int16@@QAE@ABV?$basic_string@DU?$char_traits@D@std@@V?$allocator@D@2@@std@@@Z
	??0Int32@@QAE@ABV0@@Z
	??0Int32@@QAE@ABV?$basic_string@DU?$char_traits@D@std@@V?$allocator@D@2@@std@@@Z
	??0InternalErr@@QAE@ABV0@@Z
	??0InternalErr@@QAE@ABV?$basic_string@DU?$char_traits@D@std@@V?$allocator@D@2@@std@@ABH0@Z
	??0IteratorAdapter@@QAE@ABV0@@Z
	??0IteratorAdapter@@QAE@PAV0@@Z
	??0List@@QAE@ABV0@@Z
	??0List@@QAE@ABV?$basic_string@DU?$char_traits@D@std@@V?$allocator@D@2@@std@@PAVBaseType@@@Z
	??0Regex@@QAE@PBDHH0@Z
	??0Sequence@@QAE@ABV0@@Z
	??0Sequence@@QAE@ABV?$basic_string@DU?$char_traits@D@std@@V?$allocator@D@2@@std@@@Z
	??0Str@@QAE@ABV0@@Z
	??0Str@@QAE@ABV?$basic_string@DU?$char_traits@D@std@@V?$allocator@D@2@@std@@@Z
	??0Structure@@QAE@ABV0@@Z
	??0Structure@@QAE@ABV?$basic_string@DU?$char_traits@D@std@@V?$allocator@D@2@@std@@@Z
	??0UInt16@@QAE@ABV0@@Z
	??0UInt16@@QAE@ABV?$basic_string@DU?$char_traits@D@std@@V?$allocator@D@2@@std@@@Z
	??0UInt32@@QAE@ABV0@@Z
	??0UInt32@@QAE@ABV?$basic_string@DU?$char_traits@D@std@@V?$allocator@D@2@@std@@@Z
	??0Url@@QAE@ABV?$basic_string@DU?$char_traits@D@std@@V?$allocator@D@2@@std@@@Z
	??1Array@@UAE@XZ
	??1AttrTable@@UAE@XZ
	??1BaseType@@UAE@XZ
	??1DAS@@UAE@XZ
	??1DDS@@UAE@XZ
	??1DataDDS@@UAE@XZ
	??1Error@@UAE@XZ
	??1Grid@@UAE@XZ
	??1HTTPConnect@@UAE@XZ
	??1Int32@@UAE@XZ
	??1InternalErr@@UAE@XZ
	??1IteratorAdapter@@UAE@XZ
	??1List@@UAE@XZ
	??1Regex@@QAE@XZ
	??1Sequence@@UAE@XZ
	??1Structure@@UAE@XZ
	??4DDS@@QAEAAV0@ABV0@@Z
	??4Sequence@@QAEAAV0@ABV0@@Z
	??RGetOpt@@QAEHXZ
	?Errordebug@@3HA
	?Errorlex@@YAHXZ
	?Errorlval@@3TYYSTYPE@@A
	?NewInt32@@YAPAVInt32@@ABV?$basic_string@DU?$char_traits@D@std@@V?$allocator@D@2@@std@@@Z
	?OK@Error@@QBE_NXZ
	?add_table@DAS@@QAEPAVAttrTable@@ABV?$basic_string@DU?$char_traits@D@std@@V?$allocator@D@2@@std@@PAV2@@Z
	?add_var@BaseType@@UAEXPAV1@W4Part@@@Z
	?add_var@DDS@@QAEXPAVBaseType@@@Z
	?add_var@Grid@@UAEXPAVBaseType@@W4Part@@@Z
	?add_var@Sequence@@UAEXPAVBaseType@@W4Part@@@Z
	?add_var@Structure@@UAEXPAVBaseType@@W4Part@@@Z
	?add_var@Vector@@UAEXPAVBaseType@@W4Part@@@Z
	?append_attr@AttrTable@@QAEIPBD00@Z
	?array_var@Grid@@QAEPAVBaseType@@XZ
	?attr_begin@AttrTable@@QAEPAPAUentry@1@XZ
	?attr_end@AttrTable@@QAEPAPAUentry@1@XZ
	?buf2val@Byte@@UAEIPAPAX@Z
	?buf2val@Float32@@UAEIPAPAX@Z
	?buf2val@Float64@@UAEIPAPAX@Z
	?buf2val@Grid@@UAEIPAPAX@Z
	?buf2val@Int16@@UAEIPAPAX@Z
	?buf2val@Int32@@UAEIPAPAX@Z
	?buf2val@Sequence@@UAEIPAPAX@Z
	?buf2val@Str@@UAEIPAPAX@Z
	?buf2val@Structure@@UAEIPAPAX@Z
	?buf2val@UInt16@@UAEIPAPAX@Z
	?buf2val@UInt32@@UAEIPAPAX@Z
	?buf2val@Vector@@UAEIPAPAX@Z
	?check_byte@@YAHPBD@Z
	?check_float32@@YAHPBD@Z
	?check_float64@@YAHPBD@Z
	?check_semantics@Array@@UAE_NAAV?$basic_string@DU?$char_traits@D@std@@V?$allocator@D@2@@std@@_N@Z
	?check_semantics@BaseType@@UAE_NAAV?$basic_string@DU?$char_traits@D@std@@V?$allocator@D@2@@std@@_N@Z
	?check_semantics@DDS@@QAE_N_N@Z
	?check_semantics@Grid@@UAE_NAAV?$basic_string@DU?$char_traits@D@std@@V?$allocator@D@2@@std@@_N@Z
	?check_semantics@Sequence@@UAE_NAAV?$basic_string@DU?$char_traits@D@std@@V?$allocator@D@2@@std@@_N@Z
	?check_semantics@Structure@@UAE_NAAV?$basic_string@DU?$char_traits@D@std@@V?$allocator@D@2@@std@@_N@Z
	?check_semantics@Vector@@UAE_NAAV?$basic_string@DU?$char_traits@D@std@@V?$allocator@D@2@@std@@_N@Z
	?components@Grid@@UAEH_N@Z
	?dasdebug@@3HA
	?daslex@@YAHXZ
	?daslval@@3PADA
	?ddsdebug@@3HA
	?ddslex@@YAHXZ
	?ddslval@@3TYYSTYPE@@A
	?del_attr@AttrTable@@QAEXABV?$basic_string@DU?$char_traits@D@std@@V?$allocator@D@2@@std@@H@Z
	?del_var@DDS@@QAEXABV?$basic_string@DU?$char_traits@D@std@@V?$allocator@D@2@@std@@@Z
	?delete_xdrstdio@@YAXPAU__xdr_s@@@Z
	?deserialize@Byte@@UAE_NPAU__xdr_s@@PAVDDS@@_N@Z
	?deserialize@Float32@@UAE_NPAU__xdr_s@@PAVDDS@@_N@Z
	?deserialize@Float64@@UAE_NPAU__xdr_s@@PAVDDS@@_N@Z
	?deserialize@Grid@@UAE_NPAU__xdr_s@@PAVDDS@@_N@Z
	?deserialize@Int16@@UAE_NPAU__xdr_s@@PAVDDS@@_N@Z
	?deserialize@Int32@@UAE_NPAU__xdr_s@@PAVDDS@@_N@Z
	?deserialize@Sequence@@UAE_NPAU__xdr_s@@PAVDDS@@_N@Z
	?deserialize@Str@@UAE_NPAU__xdr_s@@PAVDDS@@_N@Z
	?deserialize@Structure@@UAE_NPAU__xdr_s@@PAVDDS@@_N@Z
	?deserialize@UInt16@@UAE_NPAU__xdr_s@@PAVDDS@@_N@Z
	?deserialize@UInt32@@UAE_NPAU__xdr_s@@PAVDDS@@_N@Z
	?deserialize@Vector@@UAE_NPAU__xdr_s@@PAVDDS@@_N@Z
	?dim_begin@Array@@QAEPAUdimension@1@XZ
	?dim_end@Array@@QAEPAUdimension@1@XZ
	?dimension_name@Array@@QAE?AV?$basic_string@DU?$char_traits@D@std@@V?$allocator@D@2@@std@@AAPAUdimension@1@@Z
	?dimension_size@Array@@QAEHAAPAUdimension@1@_N@Z
	?display_message@Error@@QBEXPAX@Z
	?dods_keep_temps@@3HA
	?downcase@@YAXAAV?$basic_string@DU?$char_traits@D@std@@V?$allocator@D@2@@std@@@Z
	?element_count@BaseType@@UAEH_N@Z
	?element_count@Grid@@UAEH_N@Z
	?element_count@Sequence@@UAEH_N@Z
	?element_count@Structure@@UAEH_N@Z
	?element_count@Vector@@UAEH_N@Z
	?escattr@@YA?AV?$basic_string@DU?$char_traits@D@std@@V?$allocator@D@2@@std@@V12@@Z
	?expr_delete_buffer@@YAXPAX@Z
	?expr_string@@YAPAXPBD@Z
	?expr_switch_to_buffer@@YAXPAX@Z
	?exprdebug@@3HA
	?exprlex@@YAHXZ
	?exprlval@@3TYYSTYPE@@A
	?exprparse@@YAHPAX@Z
	?exprrestart@@YAXPAU_iobuf@@@Z
	?fetch_url@HTTPConnect@@QAEPAVHTTPResponse@@ABV?$basic_string@DU?$char_traits@D@std@@V?$allocator@D@2@@std@@@Z
	?first_attr@AttrTable@@QAE?AVIteratorAdapter@@XZ
	?found_override@@YA_NV?$basic_string@DU?$char_traits@D@std@@V?$allocator@D@2@@std@@AAV12@@Z
	?get_attr@AttrTable@@QAE?AV?$basic_string@DU?$char_traits@D@std@@V?$allocator@D@2@@std@@AAPAPAUentry@1@I@Z
	?get_attr@AttrTable@@QAE?AV?$basic_string@DU?$char_traits@D@std@@V?$allocator@D@2@@std@@ABV23@I@Z
	?get_attr@AttrTable@@QAE?AV?$basic_string@DU?$char_traits@D@std@@V?$allocator@D@2@@std@@PBDI@Z
	?get_attr@AttrTable@@QAE?AV?$basic_string@DU?$char_traits@D@std@@V?$allocator@D@2@@std@@VIteratorAdapter@@I@Z
	?get_attr_num@AttrTable@@QAEIAAPAPAUentry@1@@Z
	?get_attr_num@AttrTable@@QAEIVIteratorAdapter@@@Z
	?get_attr_table@AttrTable@@QAEPAV1@AAPAPAUentry@1@@Z
	?get_dataset_name@DDS@@QAE?AV?$basic_string@DU?$char_traits@D@std@@V?$allocator@D@2@@std@@XZ
	?get_error_message@Error@@QBE?AV?$basic_string@DU?$char_traits@D@std@@V?$allocator@D@2@@std@@XZ
	?get_name@AttrTable@@QAE?AV?$basic_string@DU?$char_traits@D@std@@V?$allocator@D@2@@std@@AAPAPAUentry@1@@Z
	?get_name@AttrTable@@QAE?AV?$basic_string@DU?$char_traits@D@std@@V?$allocator@D@2@@std@@VIteratorAdapter@@@Z
	?get_name@DAS@@QAE?AV?$basic_string@DU?$char_traits@D@std@@V?$allocator@D@2@@std@@AAPAPAUentry@AttrTable@@@Z
	?get_parent@BaseType@@UAEPAV1@XZ
	?get_table@DAS@@QAEPAVAttrTable@@AAPAPAUentry@2@@Z
	?get_table@DAS@@QAEPAVAttrTable@@ABV?$basic_string@DU?$char_traits@D@std@@V?$allocator@D@2@@std@@@Z
	?get_table@DAS@@QAEPAVAttrTable@@PBD@Z
	?get_tempfile_template@@YAPADPAD@Z
	?get_type@AttrTable@@QAE?AV?$basic_string@DU?$char_traits@D@std@@V?$allocator@D@2@@std@@AAPAPAUentry@1@@Z
	?get_type@AttrTable@@QAE?AV?$basic_string@DU?$char_traits@D@std@@V?$allocator@D@2@@std@@ABV23@@Z
	?get_type@AttrTable@@QAE?AV?$basic_string@DU?$char_traits@D@std@@V?$allocator@D@2@@std@@PBD@Z
	?get_type@AttrTable@@QAE?AV?$basic_string@DU?$char_traits@D@std@@V?$allocator@D@2@@std@@VIteratorAdapter@@@Z
	?get_user_supplied_docs@@YA?AV?$basic_string@DU?$char_traits@D@std@@V?$allocator@D@2@@std@@V12@0@Z
	?hexstring@@YA?AV?$basic_string@DU?$char_traits@D@std@@V?$allocator@D@2@@std@@E@Z
	?id2www@@YA?AV?$basic_string@DU?$char_traits@D@std@@V?$allocator@D@2@@std@@V12@ABV12@@Z
	?instance@RCReader@@SAPAV1@XZ
	?is_constructor_type@BaseType@@UAE_NXZ
	?is_container@AttrTable@@QAE_NAAPAPAUentry@1@@Z
	?is_in_selection@BaseType@@UAE_NXZ
	?is_linear@Constructor@@UAE_NXZ
	?is_linear@Sequence@@UAE_NXZ
	?is_linear@Structure@@UAE_NXZ
	?is_local@Connect@@QAE_NXZ
	?is_simple_type@BaseType@@UAE_NXZ
	?is_vector_type@BaseType@@UAE_NXZ
	?length@Vector@@UAEHXZ
	?map_begin@Grid@@QAEPAPAVBaseType@@XZ
	?map_end@Grid@@QAEPAPAVBaseType@@XZ
	?match@Regex@@QBEHPBDHH@Z
	?member@List@@UAE_NPAVBaseType@@AAVDDS@@@Z
	?munge_error_message@@YA?AV?$basic_string@DU?$char_traits@D@std@@V?$allocator@D@2@@std@@V12@@Z
	?name@BaseType@@QBE?AV?$basic_string@DU?$char_traits@D@std@@V?$allocator@D@2@@std@@XZ
	?new_xdrstdio@@YAPAU__xdr_s@@PAU_iobuf@@W4xdr_op@@@Z
	?next_attr@AttrTable@@QAEXVIteratorAdapter@@@Z
	?null@List@@UAE_NXZ
	?ops@BaseType@@UAE_NPAV1@HABV?$basic_string@DU?$char_traits@D@std@@V?$allocator@D@2@@std@@@Z
	?ops@Byte@@UAE_NPAVBaseType@@HABV?$basic_string@DU?$char_traits@D@std@@V?$allocator@D@2@@std@@@Z
	?ops@Float32@@UAE_NPAVBaseType@@HABV?$basic_string@DU?$char_traits@D@std@@V?$allocator@D@2@@std@@@Z
	?ops@Float64@@UAE_NPAVBaseType@@HABV?$basic_string@DU?$char_traits@D@std@@V?$allocator@D@2@@std@@@Z
	?ops@Int16@@UAE_NPAVBaseType@@HABV?$basic_string@DU?$char_traits@D@std@@V?$allocator@D@2@@std@@@Z
	?ops@Int32@@UAE_NPAVBaseType@@HABV?$basic_string@DU?$char_traits@D@std@@V?$allocator@D@2@@std@@@Z
	?ops@Str@@UAE_NPAVBaseType@@HABV?$basic_string@DU?$char_traits@D@std@@V?$allocator@D@2@@std@@@Z
	?ops@UInt16@@UAE_NPAVBaseType@@HABV?$basic_string@DU?$char_traits@D@std@@V?$allocator@D@2@@std@@@Z
	?ops@UInt32@@UAE_NPAVBaseType@@HABV?$basic_string@DU?$char_traits@D@std@@V?$allocator@D@2@@std@@@Z
	?parse@DAS@@QAEXPAU_iobuf@@@Z
	?parse@DAS@@QAEXV?$basic_string@DU?$char_traits@D@std@@V?$allocator@D@2@@std@@@Z
	?parse@DDS@@QAEXPAU_iobuf@@@Z
	?parse@DDS@@QAEXV?$basic_string@DU?$char_traits@D@std@@V?$allocator@D@2@@std@@@Z
	?parse@Error@@QAE_NPAU_iobuf@@@Z
	?parse_constraint@DDS@@QAEXABV?$basic_string@DU?$char_traits@D@std@@V?$allocator@D@2@@std@@@Z
	?path_to_filename@@YA?AV?$basic_string@DU?$char_traits@D@std@@V?$allocator@D@2@@std@@V12@@Z
	?print@AttrTable@@QAEXPAU_iobuf@@V?$basic_string@DU?$char_traits@D@std@@V?$allocator@D@2@@std@@_N@Z
	?print@DAS@@QAEXPAU_iobuf@@_N@Z
	?print@DDS@@QAEXPAU_iobuf@@@Z
	?print@Error@@QBEXPAU_iobuf@@@Z
	?print_all_vals@Sequence@@UAEXAAV?$basic_ostream@DU?$char_traits@D@std@@@std@@PAU__xdr_s@@PAVDDS@@V?$basic_string@DU?$char_traits@D@std@@V?$allocator@D@2@@3@_N@Z
	?print_all_vals@Sequence@@UAEXPAU_iobuf@@PAU__xdr_s@@PAVDDS@@V?$basic_string@DU?$char_traits@D@std@@V?$allocator@D@2@@std@@_N@Z
	?print_all_vals@Structure@@UAEXAAV?$basic_ostream@DU?$char_traits@D@std@@@std@@PAU__xdr_s@@PAVDDS@@V?$basic_string@DU?$char_traits@D@std@@V?$allocator@D@2@@3@_N@Z
	?print_all_vals@Structure@@UAEXPAU_iobuf@@PAU__xdr_s@@PAVDDS@@V?$basic_string@DU?$char_traits@D@std@@V?$allocator@D@2@@std@@_N@Z
	?print_constrained@DDS@@QAEXPAU_iobuf@@@Z
	?print_decl@Array@@UAEXAAV?$basic_ostream@DU?$char_traits@D@std@@@std@@V?$basic_string@DU?$char_traits@D@std@@V?$allocator@D@2@@3@_N22@Z
	?print_decl@Array@@UAEXPAU_iobuf@@V?$basic_string@DU?$char_traits@D@std@@V?$allocator@D@2@@std@@_N22@Z
	?print_decl@BaseType@@UAEXAAV?$basic_ostream@DU?$char_traits@D@std@@@std@@V?$basic_string@DU?$char_traits@D@std@@V?$allocator@D@2@@3@_N22@Z
	?print_decl@BaseType@@UAEXPAU_iobuf@@V?$basic_string@DU?$char_traits@D@std@@V?$allocator@D@2@@std@@_N22@Z
	?print_decl@Grid@@UAEXAAV?$basic_ostream@DU?$char_traits@D@std@@@std@@V?$basic_string@DU?$char_traits@D@std@@V?$allocator@D@2@@3@_N22@Z
	?print_decl@Grid@@UAEXPAU_iobuf@@V?$basic_string@DU?$char_traits@D@std@@V?$allocator@D@2@@std@@_N22@Z
	?print_decl@Sequence@@UAEXAAV?$basic_ostream@DU?$char_traits@D@std@@@std@@V?$basic_string@DU?$char_traits@D@std@@V?$allocator@D@2@@3@_N22@Z
	?print_decl@Sequence@@UAEXPAU_iobuf@@V?$basic_string@DU?$char_traits@D@std@@V?$allocator@D@2@@std@@_N22@Z
	?print_decl@Structure@@UAEXAAV?$basic_ostream@DU?$char_traits@D@std@@@std@@V?$basic_string@DU?$char_traits@D@std@@V?$allocator@D@2@@3@_N22@Z
	?print_decl@Structure@@UAEXPAU_iobuf@@V?$basic_string@DU?$char_traits@D@std@@V?$allocator@D@2@@std@@_N22@Z
	?print_decl@Vector@@UAEXAAV?$basic_ostream@DU?$char_traits@D@std@@@std@@V?$basic_string@DU?$char_traits@D@std@@V?$allocator@D@2@@3@_N22@Z
	?print_decl@Vector@@UAEXPAU_iobuf@@V?$basic_string@DU?$char_traits@D@std@@V?$allocator@D@2@@std@@_N22@Z
	?print_one_row@Sequence@@UAEXAAV?$basic_ostream@DU?$char_traits@D@std@@@std@@HV?$basic_string@DU?$char_traits@D@std@@V?$allocator@D@2@@3@_N@Z
	?print_one_row@Sequence@@UAEXPAU_iobuf@@HV?$basic_string@DU?$char_traits@D@std@@V?$allocator@D@2@@std@@_N@Z
	?print_val@Array@@UAEXAAV?$basic_ostream@DU?$char_traits@D@std@@@std@@V?$basic_string@DU?$char_traits@D@std@@V?$allocator@D@2@@3@_N@Z
	?print_val@Array@@UAEXPAU_iobuf@@V?$basic_string@DU?$char_traits@D@std@@V?$allocator@D@2@@std@@_N@Z
	?print_val@Byte@@UAEXAAV?$basic_ostream@DU?$char_traits@D@std@@@std@@V?$basic_string@DU?$char_traits@D@std@@V?$allocator@D@2@@3@_N@Z
	?print_val@Byte@@UAEXPAU_iobuf@@V?$basic_string@DU?$char_traits@D@std@@V?$allocator@D@2@@std@@_N@Z
	?print_val@Float32@@UAEXAAV?$basic_ostream@DU?$char_traits@D@std@@@std@@V?$basic_string@DU?$char_traits@D@std@@V?$allocator@D@2@@3@_N@Z
	?print_val@Float32@@UAEXPAU_iobuf@@V?$basic_string@DU?$char_traits@D@std@@V?$allocator@D@2@@std@@_N@Z
	?print_val@Float64@@UAEXAAV?$basic_ostream@DU?$char_traits@D@std@@@std@@V?$basic_string@DU?$char_traits@D@std@@V?$allocator@D@2@@3@_N@Z
	?print_val@Float64@@UAEXPAU_iobuf@@V?$basic_string@DU?$char_traits@D@std@@V?$allocator@D@2@@std@@_N@Z
	?print_val@Grid@@UAEXAAV?$basic_ostream@DU?$char_traits@D@std@@@std@@V?$basic_string@DU?$char_traits@D@std@@V?$allocator@D@2@@3@_N@Z
	?print_val@Grid@@UAEXPAU_iobuf@@V?$basic_string@DU?$char_traits@D@std@@V?$allocator@D@2@@std@@_N@Z
	?print_val@Int16@@UAEXAAV?$basic_ostream@DU?$char_traits@D@std@@@std@@V?$basic_string@DU?$char_traits@D@std@@V?$allocator@D@2@@3@_N@Z
	?print_val@Int16@@UAEXPAU_iobuf@@V?$basic_string@DU?$char_traits@D@std@@V?$allocator@D@2@@std@@_N@Z
	?print_val@Int32@@UAEXAAV?$basic_ostream@DU?$char_traits@D@std@@@std@@V?$basic_string@DU?$char_traits@D@std@@V?$allocator@D@2@@3@_N@Z
	?print_val@Int32@@UAEXPAU_iobuf@@V?$basic_string@DU?$char_traits@D@std@@V?$allocator@D@2@@std@@_N@Z
	?print_val@Sequence@@UAEXAAV?$basic_ostream@DU?$char_traits@D@std@@@std@@V?$basic_string@DU?$char_traits@D@std@@V?$allocator@D@2@@3@_N@Z
	?print_val@Sequence@@UAEXPAU_iobuf@@V?$basic_string@DU?$char_traits@D@std@@V?$allocator@D@2@@std@@_N@Z
	?print_val@Str@@UAEXAAV?$basic_ostream@DU?$char_traits@D@std@@@std@@V?$basic_string@DU?$char_traits@D@std@@V?$allocator@D@2@@3@_N@Z
	?print_val@Str@@UAEXPAU_iobuf@@V?$basic_string@DU?$char_traits@D@std@@V?$allocator@D@2@@std@@_N@Z
	?print_val@Structure@@UAEXAAV?$basic_ostream@DU?$char_traits@D@std@@@std@@V?$basic_string@DU?$char_traits@D@std@@V?$allocator@D@2@@3@_N@Z
	?print_val@Structure@@UAEXPAU_iobuf@@V?$basic_string@DU?$char_traits@D@std@@V?$allocator@D@2@@std@@_N@Z
	?print_val@UInt16@@UAEXAAV?$basic_ostream@DU?$char_traits@D@std@@@std@@V?$basic_string@DU?$char_traits@D@std@@V?$allocator@D@2@@3@_N@Z
	?print_val@UInt16@@UAEXPAU_iobuf@@V?$basic_string@DU?$char_traits@D@std@@V?$allocator@D@2@@std@@_N@Z
	?print_val@UInt32@@UAEXAAV?$basic_ostream@DU?$char_traits@D@std@@@std@@V?$basic_string@DU?$char_traits@D@std@@V?$allocator@D@2@@3@_N@Z
	?print_val@UInt32@@UAEXPAU_iobuf@@V?$basic_string@DU?$char_traits@D@std@@V?$allocator@D@2@@std@@_N@Z
	?print_val@Vector@@UAEXAAV?$basic_ostream@DU?$char_traits@D@std@@@std@@V?$basic_string@DU?$char_traits@D@std@@V?$allocator@D@2@@3@_N@Z
	?print_val@Vector@@UAEXPAU_iobuf@@V?$basic_string@DU?$char_traits@D@std@@V?$allocator@D@2@@std@@_N@Z
	?print_val_by_rows@Sequence@@UAEXAAV?$basic_ostream@DU?$char_traits@D@std@@@std@@V?$basic_string@DU?$char_traits@D@std@@V?$allocator@D@2@@3@_N2@Z
	?print_val_by_rows@Sequence@@UAEXPAU_iobuf@@V?$basic_string@DU?$char_traits@D@std@@V?$allocator@D@2@@std@@_N2@Z
	?projection_yields_grid@Grid@@UAE_NXZ
	?ptr_duplicate@Byte@@UAEPAVBaseType@@XZ
	?ptr_duplicate@Float32@@UAEPAVBaseType@@XZ
	?ptr_duplicate@Float64@@UAEPAVBaseType@@XZ
	?ptr_duplicate@Int16@@UAEPAVBaseType@@XZ
	?ptr_duplicate@Str@@UAEPAVBaseType@@XZ
	?ptr_duplicate@UInt16@@UAEPAVBaseType@@XZ
	?ptr_duplicate@UInt32@@UAEPAVBaseType@@XZ
	?ptr_duplicate@Url@@UAEPAVBaseType@@XZ
	?read@BaseType@@UAE_NABV?$basic_string@DU?$char_traits@D@std@@V?$allocator@D@2@@std@@@Z
	?read_p@BaseType@@UAE_NXZ
	?read_row@Sequence@@UAE_NHABV?$basic_string@DU?$char_traits@D@std@@V?$allocator@D@2@@std@@AAVDDS@@_N@Z
	?send@DDS@@QAE_NABV?$basic_string@DU?$char_traits@D@std@@V?$allocator@D@2@@std@@0PAU_iobuf@@_N0J@Z
	?send_p@BaseType@@UAE_NXZ
	?serialize@Byte@@UAE_NABV?$basic_string@DU?$char_traits@D@std@@V?$allocator@D@2@@std@@AAVDDS@@PAU__xdr_s@@_N@Z
	?serialize@Float32@@UAE_NABV?$basic_string@DU?$char_traits@D@std@@V?$allocator@D@2@@std@@AAVDDS@@PAU__xdr_s@@_N@Z
	?serialize@Float64@@UAE_NABV?$basic_string@DU?$char_traits@D@std@@V?$allocator@D@2@@std@@AAVDDS@@PAU__xdr_s@@_N@Z
	?serialize@Grid@@UAE_NABV?$basic_string@DU?$char_traits@D@std@@V?$allocator@D@2@@std@@AAVDDS@@PAU__xdr_s@@_N@Z
	?serialize@Int16@@UAE_NABV?$basic_string@DU?$char_traits@D@std@@V?$allocator@D@2@@std@@AAVDDS@@PAU__xdr_s@@_N@Z
	?serialize@Int32@@UAE_NABV?$basic_string@DU?$char_traits@D@std@@V?$allocator@D@2@@std@@AAVDDS@@PAU__xdr_s@@_N@Z
	?serialize@Sequence@@UAE_NABV?$basic_string@DU?$char_traits@D@std@@V?$allocator@D@2@@std@@AAVDDS@@PAU__xdr_s@@_N@Z
	?serialize@Str@@UAE_NABV?$basic_string@DU?$char_traits@D@std@@V?$allocator@D@2@@std@@AAVDDS@@PAU__xdr_s@@_N@Z
	?serialize@Structure@@UAE_NABV?$basic_string@DU?$char_traits@D@std@@V?$allocator@D@2@@std@@AAVDDS@@PAU__xdr_s@@_N@Z
	?serialize@UInt16@@UAE_NABV?$basic_string@DU?$char_traits@D@std@@V?$allocator@D@2@@std@@AAVDDS@@PAU__xdr_s@@_N@Z
	?serialize@UInt32@@UAE_NABV?$basic_string@DU?$char_traits@D@std@@V?$allocator@D@2@@std@@AAVDDS@@PAU__xdr_s@@_N@Z
	?serialize@Vector@@UAE_NABV?$basic_string@DU?$char_traits@D@std@@V?$allocator@D@2@@std@@AAVDDS@@PAU__xdr_s@@_N@Z
	?set_accept_deflate@Connect@@QAEX_N@Z
	?set_accept_deflate@HTTPConnect@@QAEX_N@Z
	?set_in_selection@BaseType@@UAEX_N@Z
	?set_in_selection@Grid@@UAEX_N@Z
	?set_in_selection@Sequence@@UAEX_N@Z
	?set_in_selection@Structure@@UAEX_N@Z
	?set_length@Vector@@UAEXH@Z
	?set_name@BaseType@@UAEXABV?$basic_string@DU?$char_traits@D@std@@V?$allocator@D@2@@std@@@Z
	?set_parent@BaseType@@UAEXPAV1@@Z
	?set_read_p@BaseType@@UAEX_N@Z
	?set_read_p@Grid@@UAEX_N@Z
	?set_read_p@Sequence@@UAEX_N@Z
	?set_read_p@Structure@@UAEX_N@Z
	?set_read_p@Vector@@UAEX_N@Z
	?set_send_p@BaseType@@UAEX_N@Z
	?set_send_p@Grid@@UAEX_N@Z
	?set_send_p@Sequence@@UAEX_N@Z
	?set_send_p@Structure@@UAEX_N@Z
	?set_send_p@Vector@@UAEX_N@Z
	?set_synthesized_p@BaseType@@UAEX_N@Z
	?set_vec@Vector@@QAEXIPAVBaseType@@@Z
	?synthesized_p@BaseType@@UAE_NXZ
	?toString@BaseType@@UAE?AV?$basic_string@DU?$char_traits@D@std@@V?$allocator@D@2@@std@@XZ
	?toString@Sequence@@UAE?AV?$basic_string@DU?$char_traits@D@std@@V?$allocator@D@2@@std@@XZ
	?type@BaseType@@QBE?AW4Type@@XZ
	?unhexstring@@YA?AV?$basic_string@DU?$char_traits@D@std@@V?$allocator@D@2@@std@@V12@@Z
	?val2buf@Byte@@UAEIPAX_N@Z
	?val2buf@Float32@@UAEIPAX_N@Z
	?val2buf@Float64@@UAEIPAX_N@Z
	?val2buf@Grid@@UAEIPAX_N@Z
	?val2buf@Int16@@UAEIPAX_N@Z
	?val2buf@Int32@@UAEIPAX_N@Z
	?val2buf@Sequence@@UAEIPAX_N@Z
	?val2buf@Str@@UAEIPAX_N@Z
	?val2buf@Structure@@UAEIPAX_N@Z
	?val2buf@UInt16@@UAEIPAX_N@Z
	?val2buf@UInt32@@UAEIPAX_N@Z
	?val2buf@Vector@@UAEIPAX_N@Z
	?value@Float32@@UAEMXZ
	?value@Float64@@UAENXZ
	?var@BaseType@@UAEPAV1@ABV?$basic_string@DU?$char_traits@D@std@@V?$allocator@D@2@@std@@AAV?$stack@PAVBaseType@@V?$deque@PAVBaseType@@V?$allocator@PAVBaseType@@@std@@@std@@@3@@Z
	?var@BaseType@@UAEPAV1@ABV?$basic_string@DU?$char_traits@D@std@@V?$allocator@D@2@@std@@_NPAV?$stack@PAVBaseType@@V?$deque@PAVBaseType@@V?$allocator@PAVBaseType@@@std@@@std@@@3@@Z
	?var@DDS@@QAEPAVBaseType@@ABV?$basic_string@DU?$char_traits@D@std@@V?$allocator@D@2@@std@@PAV?$stack@PAVBaseType@@V?$deque@PAVBaseType@@V?$allocator@PAVBaseType@@@std@@@std@@@4@@Z
	?var@DDS@@QAEPAVBaseType@@PBDPAV?$stack@PAVBaseType@@V?$deque@PAVBaseType@@V?$allocator@PAVBaseType@@@std@@@std@@@std@@@Z
	?var@Grid@@UAEPAVBaseType@@ABV?$basic_string@DU?$char_traits@D@std@@V?$allocator@D@2@@std@@AAV?$stack@PAVBaseType@@V?$deque@PAVBaseType@@V?$allocator@PAVBaseType@@@std@@@std@@@4@@Z
	?var@Grid@@UAEPAVBaseType@@ABV?$basic_string@DU?$char_traits@D@std@@V?$allocator@D@2@@std@@_NPAV?$stack@PAVBaseType@@V?$deque@PAVBaseType@@V?$allocator@PAVBaseType@@@std@@@std@@@4@@Z
	?var@Sequence@@UAEPAVBaseType@@ABV?$basic_string@DU?$char_traits@D@std@@V?$allocator@D@2@@std@@AAV?$stack@PAVBaseType@@V?$deque@PAVBaseType@@V?$allocator@PAVBaseType@@@std@@@std@@@4@@Z
	?var@Sequence@@UAEPAVBaseType@@ABV?$basic_string@DU?$char_traits@D@std@@V?$allocator@D@2@@std@@_NPAV?$stack@PAVBaseType@@V?$deque@PAVBaseType@@V?$allocator@PAVBaseType@@@std@@@std@@@4@@Z
	?var@Structure@@UAEPAVBaseType@@ABV?$basic_string@DU?$char_traits@D@std@@V?$allocator@D@2@@std@@AAV?$stack@PAVBaseType@@V?$deque@PAVBaseType@@V?$allocator@PAVBaseType@@@std@@@std@@@4@@Z
	?var@Structure@@UAEPAVBaseType@@ABV?$basic_string@DU?$char_traits@D@std@@V?$allocator@D@2@@std@@_NPAV?$stack@PAVBaseType@@V?$deque@PAVBaseType@@V?$allocator@PAVBaseType@@@std@@@std@@@4@@Z
	?var@Vector@@UAEPAVBaseType@@ABV?$basic_string@DU?$char_traits@D@std@@V?$allocator@D@2@@std@@AAV?$stack@PAVBaseType@@V?$deque@PAVBaseType@@V?$allocator@PAVBaseType@@@std@@@std@@@4@@Z
	?var@Vector@@UAEPAVBaseType@@ABV?$basic_string@DU?$char_traits@D@std@@V?$allocator@D@2@@std@@_N@Z
	?var@Vector@@UAEPAVBaseType@@I@Z
	?var_begin@DAS@@QAEPAPAUentry@AttrTable@@XZ
	?var_begin@DDS@@QAEPAPAVBaseType@@XZ
	?var_begin@Sequence@@QAEPAPAVBaseType@@XZ
	?var_begin@Structure@@QAEPAPAVBaseType@@XZ
	?var_end@DAS@@QAEPAPAUentry@AttrTable@@XZ
	?var_end@DDS@@QAEPAPAVBaseType@@XZ
	?var_end@Sequence@@QAEPAPAVBaseType@@XZ
	?var_end@Structure@@QAEPAPAVBaseType@@XZ
	?width@Byte@@UAEIXZ
	?width@Float32@@UAEIXZ
	?width@Float64@@UAEIXZ
	?width@Grid@@UAEIXZ
	?width@Int16@@UAEIXZ
	?width@Int32@@UAEIXZ
	?width@Sequence@@UAEIXZ
	?width@Str@@UAEIXZ
	?width@Structure@@UAEIXZ
	?width@UInt16@@UAEIXZ
	?width@UInt32@@UAEIXZ
	?width@Vector@@UAEIXZ
	?www2id@@YA?AV?$basic_string@DU?$char_traits@D@std@@V?$allocator@D@2@@std@@V12@ABV12@1@Z
	?var@DDS@@QAEPAVBaseType@@VIteratorAdapter@@@Z
	?next_var@DDS@@QAEXVIteratorAdapter@@@Z
	?first_var@DDS@@QAE?AVIteratorAdapter@@XZ
	?error_message@Error@@QAE?AV?$basic_string@DU?$char_traits@D@std@@V?$allocator@D@2@@std@@V23@@Z
	?char2ASCII@@YA?AV?$basic_string@DU?$char_traits@D@std@@V?$allocator@D@2@@std@@V12@V12@@Z
	?map_var@Grid@@QAEPAVBaseType@@VIteratorAdapter@@@Z
	?next_map_var@Grid@@QAEXVIteratorAdapter@@@Z
	?first_map_var@Grid@@QAE?AVIteratorAdapter@@XZ
	?var@Sequence@@QAEPAVBaseType@@VIteratorAdapter@@@Z
	?first_var@Sequence@@QAE?AVIteratorAdapter@@XZ
	?var@Structure@@QAEPAVBaseType@@VIteratorAdapter@@@Z
	?next_var@Structure@@QAEXVIteratorAdapter@@@Z
	?first_var@Structure@@QAE?AVIteratorAdapter@@XZ
	?get_table@DAS@@QAEPAVAttrTable@@VIteratorAdapter@@@Z
	?get_name@DAS@@QAE?AV?$basic_string@DU?$char_traits@D@std@@V?$allocator@D@2@@std@@VIteratorAdapter@@@Z
	?next_var@DAS@@QAEXVIteratorAdapter@@@Z
	?first_var@DAS@@QAE?AVIteratorAdapter@@XZ
	?get_size@AttrTable@@QBEIXZ
	?get_attr_table@AttrTable@@QAEPAV1@VIteratorAdapter@@@Z
	?get_attr_type@AttrTable@@QAE?AW4AttrType@@VIteratorAdapter@@@Z
	?num_var@DDS@@QAEHXZ
	?dimension_size@Array@@QAEHVIteratorAdapter@@_N@Z
	?dimension_size@Array@@QAEHVIteratorAdapter@@_N@Z
	?next_dim@Array@@QAEXVIteratorAdapter@@@Z
	?first_dim@Array@@QAE?AVIteratorAdapter@@XZ
	?type_name@BaseType@@QBE?AV?$basic_string@DU?$char_traits@D@std@@V?$allocator@D@2@@std@@XZ
	?append_attr@AttrTable@@QAEIABV?$basic_string@DU?$char_traits@D@std@@V?$allocator@D@2@@std@@00@Z
	??0AttrTable@@QAE@ABV0@@Z
	??4AttrTable@@QAEAAV0@ABV0@@Z
	?dimensions@Array@@QAEI_N@Z
	?var_value@Sequence@@QAEPAVBaseType@@II@Z
	?number_of_rows@Sequence@@QAEHXZ
	?das@Connect@@QAEAAVDAS@@XZ
	?print@DDS@@QAEXAAV?$basic_ostream@DU?$char_traits@D@std@@@std@@@Z
	?dds@Connect@@QAEAAVDDS@@XZ
	?error@Connect@@QAEAAVError@@XZ
	?next_var@Sequence@@QAEXVIteratorAdapter@@@Z
	?getIterator@IteratorAdapter@@QAEPAV1@XZ
	??4IteratorAdapter@@QAEAAV0@ABV0@@Z
	??0IteratorAdapter@@QAE@XZ
	?next@IteratorAdapter@@UAEXXZ
	?dimension_stop@Array@@QAEHVIteratorAdapter@@_N@Z
	?dimension_stride@Array@@QAEHVIteratorAdapter@@_N@Z
	?dimension_start@Array@@QAEHVIteratorAdapter@@_N@Z
	?dimension_name@Array@@QAE?AV?$basic_string@DU?$char_traits@D@std@@V?$allocator@D@2@@std@@VIteratorAdapter@@@Z
	?get_attr_iter@AttrTable@@QAEPAPAUentry@1@H@Z
	?get_attr_num@AttrTable@@QAEIABV?$basic_string@DU?$char_traits@D@std@@V?$allocator@D@2@@std@@@Z
	?get_attr_type@AttrTable@@QAE?AW4AttrType@@AAPAPAUentry@1@@Z
	?find_container@AttrTable@@QAEPAV1@ABV?$basic_string@DU?$char_traits@D@std@@V?$allocator@D@2@@std@@@Z
	?find@AttrTable@@QAEXABV?$basic_string@DU?$char_traits@D@std@@V?$allocator@D@2@@std@@PAPAV1@AAPAPAUentry@1@@Z
	?erase@AttrTable@@QAEXXZ
	?print@AttrTable@@QAEXAAV?$basic_ostream@DU?$char_traits@D@std@@@std@@V?$basic_string@DU?$char_traits@D@std@@V?$allocator@D@2@@3@_N@Z
	?add_value_alias@AttrTable@@QAEXPAV1@ABV?$basic_string@DU?$char_traits@D@std@@V?$allocator@D@2@@std@@1@Z
	?append_container@AttrTable@@QAEPAV1@ABV?$basic_string@DU?$char_traits@D@std@@V?$allocator@D@2@@std@@@Z
	?find_ancillary_file@@YA?AV?$basic_string@DU?$char_traits@D@std@@V?$allocator@D@2@@std@@V12@000@Z
	?find_group_ancillary_file@@YA?AV?$basic_string@DU?$char_traits@D@std@@V?$allocator@D@2@@std@@V12@0@Z
	?name_path@@YA?AV?$basic_string@DU?$char_traits@D@std@@V?$allocator@D@2@@std@@ABV12@@Z
	?set_mime_text@@YAXAAV?$basic_ostream@DU?$char_traits@D@std@@@std@@W4ObjectType@@ABV?$basic_string@DU?$char_traits@D@std@@V?$allocator@D@2@@2@W4EncodingType@@J@Z
	?rfc822_date@@YA?AV?$basic_string@DU?$char_traits@D@std@@V?$allocator@D@2@@std@@J@Z
	?last_modified_time@@YAJV?$basic_string@DU?$char_traits@D@std@@V?$allocator@D@2@@std@@@Z
	?get_entry_from_cache_table@HTTPCache@@ABEPAUCacheEntry@1@ABV?$basic_string@DU?$char_traits@D@std@@V?$allocator@D@2@@std@@@Z
	?cache_index_read@HTTPCache@@AAE_NXZ
	?cache_index_parse_line@HTTPCache@@AAEPAUCacheEntry@1@PBD@Z
	?get_entry_from_cache_table@HTTPCache@@ABEPAUCacheEntry@1@HABV?$basic_string@DU?$char_traits@D@std@@V?$allocator@D@2@@std@@@Z
	?add_entry_to_cache_table@HTTPCache@@AAEXPAUCacheEntry@1@@Z
	?cache_index_write@HTTPCache@@QAEXXZ
	??0HTTPCache@@AAE@V?$basic_string@DU?$char_traits@D@std@@V?$allocator@D@2@@std@@_N@Z
	?create_cache_root@HTTPCache@@AAEXABV?$basic_string@DU?$char_traits@D@std@@V?$allocator@D@2@@std@@@Z
	?set_cache_root@HTTPCache@@AAEXABV?$basic_string@DU?$char_traits@D@std@@V?$allocator@D@2@@std@@@Z
	?get_single_user_lock@HTTPCache@@AAE_N_N@Z
	?release_single_user_lock@HTTPCache@@AAEXXZ
	?create_hash_directory@HTTPCache@@AAE?AV?$basic_string@DU?$char_traits@D@std@@V?$allocator@D@2@@std@@H@Z
	?create_location@HTTPCache@@AAEXPAUCacheEntry@1@@Z
	?parse_headers@HTTPCache@@AAEXPAUCacheEntry@1@ABV?$vector@V?$basic_string@DU?$char_traits@D@std@@V?$allocator@D@2@@std@@V?$allocator@V?$basic_string@DU?$char_traits@D@std@@V?$allocator@D@2@@std@@@2@@std@@@Z
	?calculate_time@HTTPCache@@AAEXPAUCacheEntry@1@J@Z
	?read_metadata@HTTPCache@@ABEXABV?$basic_string@DU?$char_traits@D@std@@V?$allocator@D@2@@std@@AAV?$vector@V?$basic_string@DU?$char_traits@D@std@@V?$allocator@D@2@@std@@V?$allocator@V?$basic_string@DU?$char_traits@D@std@@V?$allocator@D@2@@std@@@2@@3@@Z
	?write_metadata@HTTPCache@@AAEXABV?$basic_string@DU?$char_traits@D@std@@V?$allocator@D@2@@std@@ABV?$vector@V?$basic_string@DU?$char_traits@D@std@@V?$allocator@D@2@@std@@V?$allocator@V?$basic_string@DU?$char_traits@D@std@@V?$allocator@D@2@@std@@@2@@3@@Z
	?is_url_in_cache@HTTPCache@@QAE_NABV?$basic_string@DU?$char_traits@D@std@@V?$allocator@D@2@@std@@@Z
	?cache_response@HTTPCache@@QAE_NABV?$basic_string@DU?$char_traits@D@std@@V?$allocator@D@2@@std@@JABV?$vector@V?$basic_string@DU?$char_traits@D@std@@V?$allocator@D@2@@std@@V?$allocator@V?$basic_string@DU?$char_traits@D@std@@V?$allocator@D@2@@std@@@2@@3@PBU_iobuf@@@Z
	?is_url_valid@HTTPCache@@QAE_NABV?$basic_string@DU?$char_traits@D@std@@V?$allocator@D@2@@std@@@Z
	?release_cached_response@HTTPCache@@QAEXPAU_iobuf@@@Z
	?get_cached_response@HTTPCache@@QAEPAU_iobuf@@ABV?$basic_string@DU?$char_traits@D@std@@V?$allocator@D@2@@std@@AAV?$vector@V?$basic_string@DU?$char_traits@D@std@@V?$allocator@D@2@@std@@V?$allocator@V?$basic_string@DU?$char_traits@D@std@@V?$allocator@D@2@@std@@@2@@4@@Z
	?perform_garbage_collection@HTTPCache@@AAEXXZ
	?purge_cache@HTTPCache@@QAEXXZ
	?instance@HTTPCache@@SAPAV1@ABV?$basic_string@DU?$char_traits@D@std@@V?$allocator@D@2@@std@@_N@Z
	?get_conditional_request_headers@HTTPCache@@QAE?AV?$vector@V?$basic_string@DU?$char_traits@D@std@@V?$allocator@D@2@@std@@V?$allocator@V?$basic_string@DU?$char_traits@D@std@@V?$allocator@D@2@@std@@@2@@std@@ABV?$basic_string@DU?$char_traits@D@std@@V?$allocator@D@2@@3@@Z
	?get_cache_root@HTTPCache@@QBE?AV?$basic_string@DU?$char_traits@D@std@@V?$allocator@D@2@@std@@XZ
	?update_response@HTTPCache@@QAEXABV?$basic_string@DU?$char_traits@D@std@@V?$allocator@D@2@@std@@JABV?$vector@V?$basic_string@DU?$char_traits@D@std@@V?$allocator@D@2@@std@@V?$allocator@V?$basic_string@DU?$char_traits@D@std@@V?$allocator@D@2@@std@@@2@@3@@Z
	?read_url@HTTPConnect@@AAEJABV?$basic_string@DU?$char_traits@D@std@@V?$allocator@D@2@@std@@PAU_iobuf@@PAV?$vector@V?$basic_string@DU?$char_traits@D@std@@V?$allocator@D@2@@std@@V?$allocator@V?$basic_string@DU?$char_traits@D@std@@V?$allocator@D@2@@std@@@2@@3@PBV53@@Z
	?set_cache_enabled@HTTPCache@@QAEX_N@Z
	?read_data@Connect@@UAEXAAVDataDDS@@PAU_iobuf@@@Z
	?request_data@Connect@@UAEXAAVDataDDS@@V?$basic_string@DU?$char_traits@D@std@@V?$allocator@D@2@@std@@@Z
	?request_dds@Connect@@UAEXAAVDDS@@V?$basic_string@DU?$char_traits@D@std@@V?$allocator@D@2@@std@@@Z
	?request_das@AISConnect@@UAEXAAVDAS@@@Z
	?request_version@Connect@@UAE?AV?$basic_string@DU?$char_traits@D@std@@V?$allocator@D@2@@std@@XZ
	?CE@Connect@@UAE?AV?$basic_string@DU?$char_traits@D@std@@V?$allocator@D@2@@std@@XZ
	?URL@Connect@@UAE?AV?$basic_string@DU?$char_traits@D@std@@V?$allocator@D@2@@std@@_N@Z
	??1AISConnect@@UAE@XZ
	??0InternalErr@@QAE@ABV?$basic_string@DU?$char_traits@D@std@@V?$allocator@D@2@@std@@@Z
	?add_table@DAS@@QAEPAVAttrTable@@PBDPAV2@@Z
	??0Error@@QAE@HV?$basic_string@DU?$char_traits@D@std@@V?$allocator@D@2@@std@@@Z
	??0Error@@QAE@HV?$basic_string@DU?$char_traits@D@std@@V?$allocator@D@2@@std@@@Z
	??0Error@@QAE@HV?$basic_string@DU?$char_traits@D@std@@V?$allocator@D@2@@std@@@Z
	??0Error@@QAE@HV?$basic_string@DU?$char_traits@D@std@@V?$allocator@D@2@@std@@@Z
	??0Error@@QAE@HV?$basic_string@DU?$char_traits@D@std@@V?$allocator@D@2@@std@@@Z
	??0Error@@QAE@HV?$basic_string@DU?$char_traits@D@std@@V?$allocator@D@2@@std@@@Z
	??0Error@@QAE@HV?$basic_string@DU?$char_traits@D@std@@V?$allocator@D@2@@std@@@Z
	??0Error@@QAE@HV?$basic_string@DU?$char_traits@D@std@@V?$allocator@D@2@@std@@@Z
	??0Error@@QAE@HV?$basic_string@DU?$char_traits@D@std@@V?$allocator@D@2@@std@@@Z
	?length@Sequence@@UAEHXZ
	?get_attr_num@AttrTable@@QAEIPBD@Z
	?get_error_code@Error@@QBEHXZ
	?get_error_code@Error@@QBEHXZ
